	.file	"Board.cpp"
	.text
	.weak	_ZSt19piecewise_construct
	.section	.rodata._ZSt19piecewise_construct,"aG",@progbits,_ZSt19piecewise_construct,comdat
	.type	_ZSt19piecewise_construct, @gnu_unique_object
	.size	_ZSt19piecewise_construct, 1
_ZSt19piecewise_construct:
	.zero	1
	.section	.text._ZSt17__size_to_integerm,"axG",@progbits,_ZSt17__size_to_integerm,comdat
	.weak	_ZSt17__size_to_integerm
	.type	_ZSt17__size_to_integerm, @function
_ZSt17__size_to_integerm:
.LFB291:
	.cfi_startproc
	endbr64
	pushq	%rbp
	.cfi_def_cfa_offset 16
	.cfi_offset 6, -16
	movq	%rsp, %rbp
	.cfi_def_cfa_register 6
	movq	%rdi, -8(%rbp)
	movq	-8(%rbp), %rax
	popq	%rbp
	.cfi_def_cfa 7, 8
	ret
	.cfi_endproc
.LFE291:
	.size	_ZSt17__size_to_integerm, .-_ZSt17__size_to_integerm
	.section	.text._ZNSt11char_traitsIcE6lengthEPKc,"axG",@progbits,_ZNSt11char_traitsIcE6lengthEPKc,comdat
	.weak	_ZNSt11char_traitsIcE6lengthEPKc
	.type	_ZNSt11char_traitsIcE6lengthEPKc, @function
_ZNSt11char_traitsIcE6lengthEPKc:
.LFB382:
	.cfi_startproc
	endbr64
	pushq	%rbp
	.cfi_def_cfa_offset 16
	.cfi_offset 6, -16
	movq	%rsp, %rbp
	.cfi_def_cfa_register 6
	subq	$32, %rsp
	movq	%rdi, -24(%rbp)
	movq	-24(%rbp), %rax
	movq	%rax, -8(%rbp)
	movl	$0, %eax
	testb	%al, %al
	je	.L5
	movq	-24(%rbp), %rax
	movq	%rax, %rdi
	call	_ZN9__gnu_cxx11char_traitsIcE6lengthEPKc
	jmp	.L6
.L5:
	movq	-24(%rbp), %rax
	movq	%rax, %rdi
	call	strlen@PLT
	nop
.L6:
	leave
	.cfi_def_cfa 7, 8
	ret
	.cfi_endproc
.LFE382:
	.size	_ZNSt11char_traitsIcE6lengthEPKc, .-_ZNSt11char_traitsIcE6lengthEPKc
	.section	.text._ZnwmPv,"axG",@progbits,_ZnwmPv,comdat
	.weak	_ZnwmPv
	.type	_ZnwmPv, @function
_ZnwmPv:
.LFB446:
	.cfi_startproc
	endbr64
	pushq	%rbp
	.cfi_def_cfa_offset 16
	.cfi_offset 6, -16
	movq	%rsp, %rbp
	.cfi_def_cfa_register 6
	movq	%rdi, -8(%rbp)
	movq	%rsi, -16(%rbp)
	movq	-16(%rbp), %rax
	popq	%rbp
	.cfi_def_cfa 7, 8
	ret
	.cfi_endproc
.LFE446:
	.size	_ZnwmPv, .-_ZnwmPv
	.section	.text._ZdlPvS_,"axG",@progbits,_ZdlPvS_,comdat
	.weak	_ZdlPvS_
	.type	_ZdlPvS_, @function
_ZdlPvS_:
.LFB448:
	.cfi_startproc
	endbr64
	pushq	%rbp
	.cfi_def_cfa_offset 16
	.cfi_offset 6, -16
	movq	%rsp, %rbp
	.cfi_def_cfa_register 6
	movq	%rdi, -8(%rbp)
	movq	%rsi, -16(%rbp)
	nop
	popq	%rbp
	.cfi_def_cfa 7, 8
	ret
	.cfi_endproc
.LFE448:
	.size	_ZdlPvS_, .-_ZdlPvS_
	.section	.text._ZNSt15_Rb_tree_headerC2Ev,"axG",@progbits,_ZNSt15_Rb_tree_headerC5Ev,comdat
	.align 2
	.weak	_ZNSt15_Rb_tree_headerC2Ev
	.type	_ZNSt15_Rb_tree_headerC2Ev, @function
_ZNSt15_Rb_tree_headerC2Ev:
.LFB1208:
	.cfi_startproc
	endbr64
	pushq	%rbp
	.cfi_def_cfa_offset 16
	.cfi_offset 6, -16
	movq	%rsp, %rbp
	.cfi_def_cfa_register 6
	subq	$16, %rsp
	movq	%rdi, -8(%rbp)
	movq	-8(%rbp), %rax
	movl	$0, (%rax)
	movq	-8(%rbp), %rax
	movq	%rax, %rdi
	call	_ZNSt15_Rb_tree_header8_M_resetEv
	nop
	leave
	.cfi_def_cfa 7, 8
	ret
	.cfi_endproc
.LFE1208:
	.size	_ZNSt15_Rb_tree_headerC2Ev, .-_ZNSt15_Rb_tree_headerC2Ev
	.weak	_ZNSt15_Rb_tree_headerC1Ev
	.set	_ZNSt15_Rb_tree_headerC1Ev,_ZNSt15_Rb_tree_headerC2Ev
	.section	.text._ZNSt15_Rb_tree_header8_M_resetEv,"axG",@progbits,_ZNSt15_Rb_tree_header8_M_resetEv,comdat
	.align 2
	.weak	_ZNSt15_Rb_tree_header8_M_resetEv
	.type	_ZNSt15_Rb_tree_header8_M_resetEv, @function
_ZNSt15_Rb_tree_header8_M_resetEv:
.LFB1214:
	.cfi_startproc
	endbr64
	pushq	%rbp
	.cfi_def_cfa_offset 16
	.cfi_offset 6, -16
	movq	%rsp, %rbp
	.cfi_def_cfa_register 6
	movq	%rdi, -8(%rbp)
	movq	-8(%rbp), %rax
	movq	$0, 8(%rax)
	movq	-8(%rbp), %rdx
	movq	-8(%rbp), %rax
	movq	%rdx, 16(%rax)
	movq	-8(%rbp), %rdx
	movq	-8(%rbp), %rax
	movq	%rdx, 24(%rax)
	movq	-8(%rbp), %rax
	movq	$0, 32(%rax)
	nop
	popq	%rbp
	.cfi_def_cfa 7, 8
	ret
	.cfi_endproc
.LFE1214:
	.size	_ZNSt15_Rb_tree_header8_M_resetEv, .-_ZNSt15_Rb_tree_header8_M_resetEv
	.section	.text._ZSt3minImERKT_S2_S2_,"axG",@progbits,_ZSt3minImERKT_S2_S2_,comdat
	.weak	_ZSt3minImERKT_S2_S2_
	.type	_ZSt3minImERKT_S2_S2_, @function
_ZSt3minImERKT_S2_S2_:
.LFB4141:
	.cfi_startproc
	endbr64
	pushq	%rbp
	.cfi_def_cfa_offset 16
	.cfi_offset 6, -16
	movq	%rsp, %rbp
	.cfi_def_cfa_register 6
	movq	%rdi, -8(%rbp)
	movq	%rsi, -16(%rbp)
	movq	-16(%rbp), %rax
	movq	(%rax), %rdx
	movq	-8(%rbp), %rax
	movq	(%rax), %rax
	cmpq	%rax, %rdx
	jnb	.L13
	movq	-16(%rbp), %rax
	jmp	.L14
.L13:
	movq	-8(%rbp), %rax
.L14:
	popq	%rbp
	.cfi_def_cfa 7, 8
	ret
	.cfi_endproc
.LFE4141:
	.size	_ZSt3minImERKT_S2_S2_, .-_ZSt3minImERKT_S2_S2_
	.section	.rodata
	.type	_ZN6__pstl9execution2v1L3seqE, @object
	.size	_ZN6__pstl9execution2v1L3seqE, 1
_ZN6__pstl9execution2v1L3seqE:
	.zero	1
	.type	_ZN6__pstl9execution2v1L3parE, @object
	.size	_ZN6__pstl9execution2v1L3parE, 1
_ZN6__pstl9execution2v1L3parE:
	.zero	1
	.type	_ZN6__pstl9execution2v1L9par_unseqE, @object
	.size	_ZN6__pstl9execution2v1L9par_unseqE, 1
_ZN6__pstl9execution2v1L9par_unseqE:
	.zero	1
	.type	_ZN6__pstl9execution2v1L5unseqE, @object
	.size	_ZN6__pstl9execution2v1L5unseqE, 1
_ZN6__pstl9execution2v1L5unseqE:
	.zero	1
	.local	_ZStL8__ioinit
	.comm	_ZStL8__ioinit,1,1
	.align 4
	.type	_ZN9__gnu_cxxL21__default_lock_policyE, @object
	.size	_ZN9__gnu_cxxL21__default_lock_policyE, 4
_ZN9__gnu_cxxL21__default_lock_policyE:
	.long	2
	.align 4
	.type	_ZNSt15regex_constantsL13error_collateE, @object
	.size	_ZNSt15regex_constantsL13error_collateE, 4
_ZNSt15regex_constantsL13error_collateE:
	.zero	4
	.align 4
	.type	_ZNSt15regex_constantsL11error_ctypeE, @object
	.size	_ZNSt15regex_constantsL11error_ctypeE, 4
_ZNSt15regex_constantsL11error_ctypeE:
	.long	1
	.align 4
	.type	_ZNSt15regex_constantsL12error_escapeE, @object
	.size	_ZNSt15regex_constantsL12error_escapeE, 4
_ZNSt15regex_constantsL12error_escapeE:
	.long	2
	.align 4
	.type	_ZNSt15regex_constantsL13error_backrefE, @object
	.size	_ZNSt15regex_constantsL13error_backrefE, 4
_ZNSt15regex_constantsL13error_backrefE:
	.long	3
	.align 4
	.type	_ZNSt15regex_constantsL11error_brackE, @object
	.size	_ZNSt15regex_constantsL11error_brackE, 4
_ZNSt15regex_constantsL11error_brackE:
	.long	4
	.align 4
	.type	_ZNSt15regex_constantsL11error_parenE, @object
	.size	_ZNSt15regex_constantsL11error_parenE, 4
_ZNSt15regex_constantsL11error_parenE:
	.long	5
	.align 4
	.type	_ZNSt15regex_constantsL11error_braceE, @object
	.size	_ZNSt15regex_constantsL11error_braceE, 4
_ZNSt15regex_constantsL11error_braceE:
	.long	6
	.align 4
	.type	_ZNSt15regex_constantsL14error_badbraceE, @object
	.size	_ZNSt15regex_constantsL14error_badbraceE, 4
_ZNSt15regex_constantsL14error_badbraceE:
	.long	7
	.align 4
	.type	_ZNSt15regex_constantsL11error_rangeE, @object
	.size	_ZNSt15regex_constantsL11error_rangeE, 4
_ZNSt15regex_constantsL11error_rangeE:
	.long	8
	.align 4
	.type	_ZNSt15regex_constantsL11error_spaceE, @object
	.size	_ZNSt15regex_constantsL11error_spaceE, 4
_ZNSt15regex_constantsL11error_spaceE:
	.long	9
	.align 4
	.type	_ZNSt15regex_constantsL15error_badrepeatE, @object
	.size	_ZNSt15regex_constantsL15error_badrepeatE, 4
_ZNSt15regex_constantsL15error_badrepeatE:
	.long	10
	.align 4
	.type	_ZNSt15regex_constantsL16error_complexityE, @object
	.size	_ZNSt15regex_constantsL16error_complexityE, 4
_ZNSt15regex_constantsL16error_complexityE:
	.long	11
	.align 4
	.type	_ZNSt15regex_constantsL11error_stackE, @object
	.size	_ZNSt15regex_constantsL11error_stackE, 4
_ZNSt15regex_constantsL11error_stackE:
	.long	12
	.align 8
	.type	_ZNSt8__detailL19_S_invalid_state_idE, @object
	.size	_ZNSt8__detailL19_S_invalid_state_idE, 8
_ZNSt8__detailL19_S_invalid_state_idE:
	.quad	-1
	.section	.text._ZSt7forwardIcEOT_RNSt16remove_referenceIS0_E4typeE,"axG",@progbits,_ZSt7forwardIcEOT_RNSt16remove_referenceIS0_E4typeE,comdat
	.weak	_ZSt7forwardIcEOT_RNSt16remove_referenceIS0_E4typeE
	.type	_ZSt7forwardIcEOT_RNSt16remove_referenceIS0_E4typeE, @function
_ZSt7forwardIcEOT_RNSt16remove_referenceIS0_E4typeE:
.LFB8345:
	.cfi_startproc
	endbr64
	pushq	%rbp
	.cfi_def_cfa_offset 16
	.cfi_offset 6, -16
	movq	%rsp, %rbp
	.cfi_def_cfa_register 6
	movq	%rdi, -8(%rbp)
	movq	-8(%rbp), %rax
	popq	%rbp
	.cfi_def_cfa 7, 8
	ret
	.cfi_endproc
.LFE8345:
	.size	_ZSt7forwardIcEOT_RNSt16remove_referenceIS0_E4typeE, .-_ZSt7forwardIcEOT_RNSt16remove_referenceIS0_E4typeE
	.section	.text._ZN5Board7set_bitERyi,"axG",@progbits,_ZN5Board7set_bitERyi,comdat
	.align 2
	.weak	_ZN5Board7set_bitERyi
	.type	_ZN5Board7set_bitERyi, @function
_ZN5Board7set_bitERyi:
.LFB9699:
	.cfi_startproc
	endbr64
	pushq	%rbp
	.cfi_def_cfa_offset 16
	.cfi_offset 6, -16
	movq	%rsp, %rbp
	.cfi_def_cfa_register 6
	movq	%rdi, -8(%rbp)
	movq	%rsi, -16(%rbp)
	movl	%edx, -20(%rbp)
	movq	-16(%rbp), %rax
	movq	(%rax), %rdx
	movl	-20(%rbp), %eax
	movl	$1, %esi
	movl	%eax, %ecx
	salq	%cl, %rsi
	movq	%rsi, %rax
	orq	%rax, %rdx
	movq	-16(%rbp), %rax
	movq	%rdx, (%rax)
	nop
	popq	%rbp
	.cfi_def_cfa 7, 8
	ret
	.cfi_endproc
.LFE9699:
	.size	_ZN5Board7set_bitERyi, .-_ZN5Board7set_bitERyi
	.section	.text._ZN5Board7get_bitEyi,"axG",@progbits,_ZN5Board7get_bitEyi,comdat
	.align 2
	.weak	_ZN5Board7get_bitEyi
	.type	_ZN5Board7get_bitEyi, @function
_ZN5Board7get_bitEyi:
.LFB9700:
	.cfi_startproc
	endbr64
	pushq	%rbp
	.cfi_def_cfa_offset 16
	.cfi_offset 6, -16
	movq	%rsp, %rbp
	.cfi_def_cfa_register 6
	movq	%rdi, -8(%rbp)
	movq	%rsi, -16(%rbp)
	movl	%edx, -20(%rbp)
	movl	-20(%rbp), %eax
	movl	$1, %edx
	movl	%eax, %ecx
	salq	%cl, %rdx
	movq	%rdx, %rax
	andq	-16(%rbp), %rax
	popq	%rbp
	.cfi_def_cfa 7, 8
	ret
	.cfi_endproc
.LFE9700:
	.size	_ZN5Board7get_bitEyi, .-_ZN5Board7get_bitEyi
	.section	.text._ZN5Board10remove_bitERyi,"axG",@progbits,_ZN5Board10remove_bitERyi,comdat
	.align 2
	.weak	_ZN5Board10remove_bitERyi
	.type	_ZN5Board10remove_bitERyi, @function
_ZN5Board10remove_bitERyi:
.LFB9701:
	.cfi_startproc
	endbr64
	pushq	%rbp
	.cfi_def_cfa_offset 16
	.cfi_offset 6, -16
	movq	%rsp, %rbp
	.cfi_def_cfa_register 6
	movq	%rdi, -8(%rbp)
	movq	%rsi, -16(%rbp)
	movl	%edx, -20(%rbp)
	movq	-16(%rbp), %rax
	movq	(%rax), %rdx
	movl	-20(%rbp), %eax
	movl	$1, %esi
	movl	%eax, %ecx
	salq	%cl, %rsi
	movq	%rsi, %rax
	notq	%rax
	andq	%rax, %rdx
	movq	-16(%rbp), %rax
	movq	%rdx, (%rax)
	nop
	popq	%rbp
	.cfi_def_cfa 7, 8
	ret
	.cfi_endproc
.LFE9701:
	.size	_ZN5Board10remove_bitERyi, .-_ZN5Board10remove_bitERyi
	.section	.text._ZNSt8_Rb_treeIcSt4pairIKcyESt10_Select1stIS2_ESt4lessIcESaIS2_EE13_Rb_tree_implIS6_Lb1EED2Ev,"axG",@progbits,_ZNSt8_Rb_treeIcSt4pairIKcyESt10_Select1stIS2_ESt4lessIcESaIS2_EE13_Rb_tree_implIS6_Lb1EED5Ev,comdat
	.align 2
	.weak	_ZNSt8_Rb_treeIcSt4pairIKcyESt10_Select1stIS2_ESt4lessIcESaIS2_EE13_Rb_tree_implIS6_Lb1EED2Ev
	.type	_ZNSt8_Rb_treeIcSt4pairIKcyESt10_Select1stIS2_ESt4lessIcESaIS2_EE13_Rb_tree_implIS6_Lb1EED2Ev, @function
_ZNSt8_Rb_treeIcSt4pairIKcyESt10_Select1stIS2_ESt4lessIcESaIS2_EE13_Rb_tree_implIS6_Lb1EED2Ev:
.LFB9709:
	.cfi_startproc
	endbr64
	pushq	%rbp
	.cfi_def_cfa_offset 16
	.cfi_offset 6, -16
	movq	%rsp, %rbp
	.cfi_def_cfa_register 6
	subq	$16, %rsp
	movq	%rdi, -8(%rbp)
	movq	-8(%rbp), %rax
	movq	%rax, %rdi
	call	_ZNSaISt13_Rb_tree_nodeISt4pairIKcyEEED2Ev
	nop
	leave
	.cfi_def_cfa 7, 8
	ret
	.cfi_endproc
.LFE9709:
	.size	_ZNSt8_Rb_treeIcSt4pairIKcyESt10_Select1stIS2_ESt4lessIcESaIS2_EE13_Rb_tree_implIS6_Lb1EED2Ev, .-_ZNSt8_Rb_treeIcSt4pairIKcyESt10_Select1stIS2_ESt4lessIcESaIS2_EE13_Rb_tree_implIS6_Lb1EED2Ev
	.weak	_ZNSt8_Rb_treeIcSt4pairIKcyESt10_Select1stIS2_ESt4lessIcESaIS2_EE13_Rb_tree_implIS6_Lb1EED1Ev
	.set	_ZNSt8_Rb_treeIcSt4pairIKcyESt10_Select1stIS2_ESt4lessIcESaIS2_EE13_Rb_tree_implIS6_Lb1EED1Ev,_ZNSt8_Rb_treeIcSt4pairIKcyESt10_Select1stIS2_ESt4lessIcESaIS2_EE13_Rb_tree_implIS6_Lb1EED2Ev
	.section	.text._ZNSt8_Rb_treeIcSt4pairIKcyESt10_Select1stIS2_ESt4lessIcESaIS2_EEC2Ev,"axG",@progbits,_ZNSt8_Rb_treeIcSt4pairIKcyESt10_Select1stIS2_ESt4lessIcESaIS2_EEC5Ev,comdat
	.align 2
	.weak	_ZNSt8_Rb_treeIcSt4pairIKcyESt10_Select1stIS2_ESt4lessIcESaIS2_EEC2Ev
	.type	_ZNSt8_Rb_treeIcSt4pairIKcyESt10_Select1stIS2_ESt4lessIcESaIS2_EEC2Ev, @function
_ZNSt8_Rb_treeIcSt4pairIKcyESt10_Select1stIS2_ESt4lessIcESaIS2_EEC2Ev:
.LFB9711:
	.cfi_startproc
	endbr64
	pushq	%rbp
	.cfi_def_cfa_offset 16
	.cfi_offset 6, -16
	movq	%rsp, %rbp
	.cfi_def_cfa_register 6
	subq	$16, %rsp
	movq	%rdi, -8(%rbp)
	movq	-8(%rbp), %rax
	movq	%rax, %rdi
	call	_ZNSt8_Rb_treeIcSt4pairIKcyESt10_Select1stIS2_ESt4lessIcESaIS2_EE13_Rb_tree_implIS6_Lb1EEC1Ev
	nop
	leave
	.cfi_def_cfa 7, 8
	ret
	.cfi_endproc
.LFE9711:
	.size	_ZNSt8_Rb_treeIcSt4pairIKcyESt10_Select1stIS2_ESt4lessIcESaIS2_EEC2Ev, .-_ZNSt8_Rb_treeIcSt4pairIKcyESt10_Select1stIS2_ESt4lessIcESaIS2_EEC2Ev
	.weak	_ZNSt8_Rb_treeIcSt4pairIKcyESt10_Select1stIS2_ESt4lessIcESaIS2_EEC1Ev
	.set	_ZNSt8_Rb_treeIcSt4pairIKcyESt10_Select1stIS2_ESt4lessIcESaIS2_EEC1Ev,_ZNSt8_Rb_treeIcSt4pairIKcyESt10_Select1stIS2_ESt4lessIcESaIS2_EEC2Ev
	.section	.text._ZNSt3mapIcySt4lessIcESaISt4pairIKcyEEEC2Ev,"axG",@progbits,_ZNSt3mapIcySt4lessIcESaISt4pairIKcyEEEC5Ev,comdat
	.align 2
	.weak	_ZNSt3mapIcySt4lessIcESaISt4pairIKcyEEEC2Ev
	.type	_ZNSt3mapIcySt4lessIcESaISt4pairIKcyEEEC2Ev, @function
_ZNSt3mapIcySt4lessIcESaISt4pairIKcyEEEC2Ev:
.LFB9713:
	.cfi_startproc
	endbr64
	pushq	%rbp
	.cfi_def_cfa_offset 16
	.cfi_offset 6, -16
	movq	%rsp, %rbp
	.cfi_def_cfa_register 6
	subq	$16, %rsp
	movq	%rdi, -8(%rbp)
	movq	-8(%rbp), %rax
	movq	%rax, %rdi
	call	_ZNSt8_Rb_treeIcSt4pairIKcyESt10_Select1stIS2_ESt4lessIcESaIS2_EEC1Ev
	nop
	leave
	.cfi_def_cfa 7, 8
	ret
	.cfi_endproc
.LFE9713:
	.size	_ZNSt3mapIcySt4lessIcESaISt4pairIKcyEEEC2Ev, .-_ZNSt3mapIcySt4lessIcESaISt4pairIKcyEEEC2Ev
	.weak	_ZNSt3mapIcySt4lessIcESaISt4pairIKcyEEEC1Ev
	.set	_ZNSt3mapIcySt4lessIcESaISt4pairIKcyEEEC1Ev,_ZNSt3mapIcySt4lessIcESaISt4pairIKcyEEEC2Ev
	.section	.text._ZNSt3mapIcySt4lessIcESaISt4pairIKcyEEED2Ev,"axG",@progbits,_ZNSt3mapIcySt4lessIcESaISt4pairIKcyEEED5Ev,comdat
	.align 2
	.weak	_ZNSt3mapIcySt4lessIcESaISt4pairIKcyEEED2Ev
	.type	_ZNSt3mapIcySt4lessIcESaISt4pairIKcyEEED2Ev, @function
_ZNSt3mapIcySt4lessIcESaISt4pairIKcyEEED2Ev:
.LFB9716:
	.cfi_startproc
	endbr64
	pushq	%rbp
	.cfi_def_cfa_offset 16
	.cfi_offset 6, -16
	movq	%rsp, %rbp
	.cfi_def_cfa_register 6
	subq	$16, %rsp
	movq	%rdi, -8(%rbp)
	movq	-8(%rbp), %rax
	movq	%rax, %rdi
	call	_ZNSt8_Rb_treeIcSt4pairIKcyESt10_Select1stIS2_ESt4lessIcESaIS2_EED1Ev
	nop
	leave
	.cfi_def_cfa 7, 8
	ret
	.cfi_endproc
.LFE9716:
	.size	_ZNSt3mapIcySt4lessIcESaISt4pairIKcyEEED2Ev, .-_ZNSt3mapIcySt4lessIcESaISt4pairIKcyEEED2Ev
	.weak	_ZNSt3mapIcySt4lessIcESaISt4pairIKcyEEED1Ev
	.set	_ZNSt3mapIcySt4lessIcESaISt4pairIKcyEEED1Ev,_ZNSt3mapIcySt4lessIcESaISt4pairIKcyEEED2Ev
	.section	.text._ZNSt12_Vector_baseIySaIyEE12_Vector_implD2Ev,"axG",@progbits,_ZNSt12_Vector_baseIySaIyEE12_Vector_implD5Ev,comdat
	.align 2
	.weak	_ZNSt12_Vector_baseIySaIyEE12_Vector_implD2Ev
	.type	_ZNSt12_Vector_baseIySaIyEE12_Vector_implD2Ev, @function
_ZNSt12_Vector_baseIySaIyEE12_Vector_implD2Ev:
.LFB9722:
	.cfi_startproc
	endbr64
	pushq	%rbp
	.cfi_def_cfa_offset 16
	.cfi_offset 6, -16
	movq	%rsp, %rbp
	.cfi_def_cfa_register 6
	subq	$16, %rsp
	movq	%rdi, -8(%rbp)
	movq	-8(%rbp), %rax
	movq	%rax, %rdi
	call	_ZNSaIyED2Ev
	nop
	leave
	.cfi_def_cfa 7, 8
	ret
	.cfi_endproc
.LFE9722:
	.size	_ZNSt12_Vector_baseIySaIyEE12_Vector_implD2Ev, .-_ZNSt12_Vector_baseIySaIyEE12_Vector_implD2Ev
	.weak	_ZNSt12_Vector_baseIySaIyEE12_Vector_implD1Ev
	.set	_ZNSt12_Vector_baseIySaIyEE12_Vector_implD1Ev,_ZNSt12_Vector_baseIySaIyEE12_Vector_implD2Ev
	.section	.text._ZNSt12_Vector_baseIySaIyEEC2Ev,"axG",@progbits,_ZNSt12_Vector_baseIySaIyEEC5Ev,comdat
	.align 2
	.weak	_ZNSt12_Vector_baseIySaIyEEC2Ev
	.type	_ZNSt12_Vector_baseIySaIyEEC2Ev, @function
_ZNSt12_Vector_baseIySaIyEEC2Ev:
.LFB9724:
	.cfi_startproc
	endbr64
	pushq	%rbp
	.cfi_def_cfa_offset 16
	.cfi_offset 6, -16
	movq	%rsp, %rbp
	.cfi_def_cfa_register 6
	subq	$16, %rsp
	movq	%rdi, -8(%rbp)
	movq	-8(%rbp), %rax
	movq	%rax, %rdi
	call	_ZNSt12_Vector_baseIySaIyEE12_Vector_implC1Ev
	nop
	leave
	.cfi_def_cfa 7, 8
	ret
	.cfi_endproc
.LFE9724:
	.size	_ZNSt12_Vector_baseIySaIyEEC2Ev, .-_ZNSt12_Vector_baseIySaIyEEC2Ev
	.weak	_ZNSt12_Vector_baseIySaIyEEC1Ev
	.set	_ZNSt12_Vector_baseIySaIyEEC1Ev,_ZNSt12_Vector_baseIySaIyEEC2Ev
	.section	.text._ZNSt6vectorIySaIyEEC2Ev,"axG",@progbits,_ZNSt6vectorIySaIyEEC5Ev,comdat
	.align 2
	.weak	_ZNSt6vectorIySaIyEEC2Ev
	.type	_ZNSt6vectorIySaIyEEC2Ev, @function
_ZNSt6vectorIySaIyEEC2Ev:
.LFB9726:
	.cfi_startproc
	endbr64
	pushq	%rbp
	.cfi_def_cfa_offset 16
	.cfi_offset 6, -16
	movq	%rsp, %rbp
	.cfi_def_cfa_register 6
	subq	$16, %rsp
	movq	%rdi, -8(%rbp)
	movq	-8(%rbp), %rax
	movq	%rax, %rdi
	call	_ZNSt12_Vector_baseIySaIyEEC2Ev
	nop
	leave
	.cfi_def_cfa 7, 8
	ret
	.cfi_endproc
.LFE9726:
	.size	_ZNSt6vectorIySaIyEEC2Ev, .-_ZNSt6vectorIySaIyEEC2Ev
	.weak	_ZNSt6vectorIySaIyEEC1Ev
	.set	_ZNSt6vectorIySaIyEEC1Ev,_ZNSt6vectorIySaIyEEC2Ev
	.section	.text._ZNSt8_Rb_treeINSt7__cxx1112basic_stringIcSt11char_traitsIcESaIcEEESt4pairIKS5_iESt10_Select1stIS8_ESt4lessIS5_ESaIS8_EE13_Rb_tree_implISC_Lb1EED2Ev,"axG",@progbits,_ZNSt8_Rb_treeINSt7__cxx1112basic_stringIcSt11char_traitsIcESaIcEEESt4pairIKS5_iESt10_Select1stIS8_ESt4lessIS5_ESaIS8_EE13_Rb_tree_implISC_Lb1EED5Ev,comdat
	.align 2
	.weak	_ZNSt8_Rb_treeINSt7__cxx1112basic_stringIcSt11char_traitsIcESaIcEEESt4pairIKS5_iESt10_Select1stIS8_ESt4lessIS5_ESaIS8_EE13_Rb_tree_implISC_Lb1EED2Ev
	.type	_ZNSt8_Rb_treeINSt7__cxx1112basic_stringIcSt11char_traitsIcESaIcEEESt4pairIKS5_iESt10_Select1stIS8_ESt4lessIS5_ESaIS8_EE13_Rb_tree_implISC_Lb1EED2Ev, @function
_ZNSt8_Rb_treeINSt7__cxx1112basic_stringIcSt11char_traitsIcESaIcEEESt4pairIKS5_iESt10_Select1stIS8_ESt4lessIS5_ESaIS8_EE13_Rb_tree_implISC_Lb1EED2Ev:
.LFB9734:
	.cfi_startproc
	endbr64
	pushq	%rbp
	.cfi_def_cfa_offset 16
	.cfi_offset 6, -16
	movq	%rsp, %rbp
	.cfi_def_cfa_register 6
	subq	$16, %rsp
	movq	%rdi, -8(%rbp)
	movq	-8(%rbp), %rax
	movq	%rax, %rdi
	call	_ZNSaISt13_Rb_tree_nodeISt4pairIKNSt7__cxx1112basic_stringIcSt11char_traitsIcESaIcEEEiEEED2Ev
	nop
	leave
	.cfi_def_cfa 7, 8
	ret
	.cfi_endproc
.LFE9734:
	.size	_ZNSt8_Rb_treeINSt7__cxx1112basic_stringIcSt11char_traitsIcESaIcEEESt4pairIKS5_iESt10_Select1stIS8_ESt4lessIS5_ESaIS8_EE13_Rb_tree_implISC_Lb1EED2Ev, .-_ZNSt8_Rb_treeINSt7__cxx1112basic_stringIcSt11char_traitsIcESaIcEEESt4pairIKS5_iESt10_Select1stIS8_ESt4lessIS5_ESaIS8_EE13_Rb_tree_implISC_Lb1EED2Ev
	.weak	_ZNSt8_Rb_treeINSt7__cxx1112basic_stringIcSt11char_traitsIcESaIcEEESt4pairIKS5_iESt10_Select1stIS8_ESt4lessIS5_ESaIS8_EE13_Rb_tree_implISC_Lb1EED1Ev
	.set	_ZNSt8_Rb_treeINSt7__cxx1112basic_stringIcSt11char_traitsIcESaIcEEESt4pairIKS5_iESt10_Select1stIS8_ESt4lessIS5_ESaIS8_EE13_Rb_tree_implISC_Lb1EED1Ev,_ZNSt8_Rb_treeINSt7__cxx1112basic_stringIcSt11char_traitsIcESaIcEEESt4pairIKS5_iESt10_Select1stIS8_ESt4lessIS5_ESaIS8_EE13_Rb_tree_implISC_Lb1EED2Ev
	.section	.text._ZNSt8_Rb_treeINSt7__cxx1112basic_stringIcSt11char_traitsIcESaIcEEESt4pairIKS5_iESt10_Select1stIS8_ESt4lessIS5_ESaIS8_EEC2Ev,"axG",@progbits,_ZNSt8_Rb_treeINSt7__cxx1112basic_stringIcSt11char_traitsIcESaIcEEESt4pairIKS5_iESt10_Select1stIS8_ESt4lessIS5_ESaIS8_EEC5Ev,comdat
	.align 2
	.weak	_ZNSt8_Rb_treeINSt7__cxx1112basic_stringIcSt11char_traitsIcESaIcEEESt4pairIKS5_iESt10_Select1stIS8_ESt4lessIS5_ESaIS8_EEC2Ev
	.type	_ZNSt8_Rb_treeINSt7__cxx1112basic_stringIcSt11char_traitsIcESaIcEEESt4pairIKS5_iESt10_Select1stIS8_ESt4lessIS5_ESaIS8_EEC2Ev, @function
_ZNSt8_Rb_treeINSt7__cxx1112basic_stringIcSt11char_traitsIcESaIcEEESt4pairIKS5_iESt10_Select1stIS8_ESt4lessIS5_ESaIS8_EEC2Ev:
.LFB9736:
	.cfi_startproc
	endbr64
	pushq	%rbp
	.cfi_def_cfa_offset 16
	.cfi_offset 6, -16
	movq	%rsp, %rbp
	.cfi_def_cfa_register 6
	subq	$16, %rsp
	movq	%rdi, -8(%rbp)
	movq	-8(%rbp), %rax
	movq	%rax, %rdi
	call	_ZNSt8_Rb_treeINSt7__cxx1112basic_stringIcSt11char_traitsIcESaIcEEESt4pairIKS5_iESt10_Select1stIS8_ESt4lessIS5_ESaIS8_EE13_Rb_tree_implISC_Lb1EEC1Ev
	nop
	leave
	.cfi_def_cfa 7, 8
	ret
	.cfi_endproc
.LFE9736:
	.size	_ZNSt8_Rb_treeINSt7__cxx1112basic_stringIcSt11char_traitsIcESaIcEEESt4pairIKS5_iESt10_Select1stIS8_ESt4lessIS5_ESaIS8_EEC2Ev, .-_ZNSt8_Rb_treeINSt7__cxx1112basic_stringIcSt11char_traitsIcESaIcEEESt4pairIKS5_iESt10_Select1stIS8_ESt4lessIS5_ESaIS8_EEC2Ev
	.weak	_ZNSt8_Rb_treeINSt7__cxx1112basic_stringIcSt11char_traitsIcESaIcEEESt4pairIKS5_iESt10_Select1stIS8_ESt4lessIS5_ESaIS8_EEC1Ev
	.set	_ZNSt8_Rb_treeINSt7__cxx1112basic_stringIcSt11char_traitsIcESaIcEEESt4pairIKS5_iESt10_Select1stIS8_ESt4lessIS5_ESaIS8_EEC1Ev,_ZNSt8_Rb_treeINSt7__cxx1112basic_stringIcSt11char_traitsIcESaIcEEESt4pairIKS5_iESt10_Select1stIS8_ESt4lessIS5_ESaIS8_EEC2Ev
	.section	.text._ZNSt3mapINSt7__cxx1112basic_stringIcSt11char_traitsIcESaIcEEEiSt4lessIS5_ESaISt4pairIKS5_iEEEC2Ev,"axG",@progbits,_ZNSt3mapINSt7__cxx1112basic_stringIcSt11char_traitsIcESaIcEEEiSt4lessIS5_ESaISt4pairIKS5_iEEEC5Ev,comdat
	.align 2
	.weak	_ZNSt3mapINSt7__cxx1112basic_stringIcSt11char_traitsIcESaIcEEEiSt4lessIS5_ESaISt4pairIKS5_iEEEC2Ev
	.type	_ZNSt3mapINSt7__cxx1112basic_stringIcSt11char_traitsIcESaIcEEEiSt4lessIS5_ESaISt4pairIKS5_iEEEC2Ev, @function
_ZNSt3mapINSt7__cxx1112basic_stringIcSt11char_traitsIcESaIcEEEiSt4lessIS5_ESaISt4pairIKS5_iEEEC2Ev:
.LFB9738:
	.cfi_startproc
	endbr64
	pushq	%rbp
	.cfi_def_cfa_offset 16
	.cfi_offset 6, -16
	movq	%rsp, %rbp
	.cfi_def_cfa_register 6
	subq	$16, %rsp
	movq	%rdi, -8(%rbp)
	movq	-8(%rbp), %rax
	movq	%rax, %rdi
	call	_ZNSt8_Rb_treeINSt7__cxx1112basic_stringIcSt11char_traitsIcESaIcEEESt4pairIKS5_iESt10_Select1stIS8_ESt4lessIS5_ESaIS8_EEC1Ev
	nop
	leave
	.cfi_def_cfa 7, 8
	ret
	.cfi_endproc
.LFE9738:
	.size	_ZNSt3mapINSt7__cxx1112basic_stringIcSt11char_traitsIcESaIcEEEiSt4lessIS5_ESaISt4pairIKS5_iEEEC2Ev, .-_ZNSt3mapINSt7__cxx1112basic_stringIcSt11char_traitsIcESaIcEEEiSt4lessIS5_ESaISt4pairIKS5_iEEEC2Ev
	.weak	_ZNSt3mapINSt7__cxx1112basic_stringIcSt11char_traitsIcESaIcEEEiSt4lessIS5_ESaISt4pairIKS5_iEEEC1Ev
	.set	_ZNSt3mapINSt7__cxx1112basic_stringIcSt11char_traitsIcESaIcEEEiSt4lessIS5_ESaISt4pairIKS5_iEEEC1Ev,_ZNSt3mapINSt7__cxx1112basic_stringIcSt11char_traitsIcESaIcEEEiSt4lessIS5_ESaISt4pairIKS5_iEEEC2Ev
	.section	.text._ZNSt3mapINSt7__cxx1112basic_stringIcSt11char_traitsIcESaIcEEEiSt4lessIS5_ESaISt4pairIKS5_iEEED2Ev,"axG",@progbits,_ZNSt3mapINSt7__cxx1112basic_stringIcSt11char_traitsIcESaIcEEEiSt4lessIS5_ESaISt4pairIKS5_iEEED5Ev,comdat
	.align 2
	.weak	_ZNSt3mapINSt7__cxx1112basic_stringIcSt11char_traitsIcESaIcEEEiSt4lessIS5_ESaISt4pairIKS5_iEEED2Ev
	.type	_ZNSt3mapINSt7__cxx1112basic_stringIcSt11char_traitsIcESaIcEEEiSt4lessIS5_ESaISt4pairIKS5_iEEED2Ev, @function
_ZNSt3mapINSt7__cxx1112basic_stringIcSt11char_traitsIcESaIcEEEiSt4lessIS5_ESaISt4pairIKS5_iEEED2Ev:
.LFB9741:
	.cfi_startproc
	endbr64
	pushq	%rbp
	.cfi_def_cfa_offset 16
	.cfi_offset 6, -16
	movq	%rsp, %rbp
	.cfi_def_cfa_register 6
	subq	$16, %rsp
	movq	%rdi, -8(%rbp)
	movq	-8(%rbp), %rax
	movq	%rax, %rdi
	call	_ZNSt8_Rb_treeINSt7__cxx1112basic_stringIcSt11char_traitsIcESaIcEEESt4pairIKS5_iESt10_Select1stIS8_ESt4lessIS5_ESaIS8_EED1Ev
	nop
	leave
	.cfi_def_cfa 7, 8
	ret
	.cfi_endproc
.LFE9741:
	.size	_ZNSt3mapINSt7__cxx1112basic_stringIcSt11char_traitsIcESaIcEEEiSt4lessIS5_ESaISt4pairIKS5_iEEED2Ev, .-_ZNSt3mapINSt7__cxx1112basic_stringIcSt11char_traitsIcESaIcEEEiSt4lessIS5_ESaISt4pairIKS5_iEEED2Ev
	.weak	_ZNSt3mapINSt7__cxx1112basic_stringIcSt11char_traitsIcESaIcEEEiSt4lessIS5_ESaISt4pairIKS5_iEEED1Ev
	.set	_ZNSt3mapINSt7__cxx1112basic_stringIcSt11char_traitsIcESaIcEEEiSt4lessIS5_ESaISt4pairIKS5_iEEED1Ev,_ZNSt3mapINSt7__cxx1112basic_stringIcSt11char_traitsIcESaIcEEEiSt4lessIS5_ESaISt4pairIKS5_iEEED2Ev
	.section	.text._ZNSt8_Rb_treeIcSt4pairIKciESt10_Select1stIS2_ESt4lessIcESaIS2_EE13_Rb_tree_implIS6_Lb1EED2Ev,"axG",@progbits,_ZNSt8_Rb_treeIcSt4pairIKciESt10_Select1stIS2_ESt4lessIcESaIS2_EE13_Rb_tree_implIS6_Lb1EED5Ev,comdat
	.align 2
	.weak	_ZNSt8_Rb_treeIcSt4pairIKciESt10_Select1stIS2_ESt4lessIcESaIS2_EE13_Rb_tree_implIS6_Lb1EED2Ev
	.type	_ZNSt8_Rb_treeIcSt4pairIKciESt10_Select1stIS2_ESt4lessIcESaIS2_EE13_Rb_tree_implIS6_Lb1EED2Ev, @function
_ZNSt8_Rb_treeIcSt4pairIKciESt10_Select1stIS2_ESt4lessIcESaIS2_EE13_Rb_tree_implIS6_Lb1EED2Ev:
.LFB9747:
	.cfi_startproc
	endbr64
	pushq	%rbp
	.cfi_def_cfa_offset 16
	.cfi_offset 6, -16
	movq	%rsp, %rbp
	.cfi_def_cfa_register 6
	subq	$16, %rsp
	movq	%rdi, -8(%rbp)
	movq	-8(%rbp), %rax
	movq	%rax, %rdi
	call	_ZNSaISt13_Rb_tree_nodeISt4pairIKciEEED2Ev
	nop
	leave
	.cfi_def_cfa 7, 8
	ret
	.cfi_endproc
.LFE9747:
	.size	_ZNSt8_Rb_treeIcSt4pairIKciESt10_Select1stIS2_ESt4lessIcESaIS2_EE13_Rb_tree_implIS6_Lb1EED2Ev, .-_ZNSt8_Rb_treeIcSt4pairIKciESt10_Select1stIS2_ESt4lessIcESaIS2_EE13_Rb_tree_implIS6_Lb1EED2Ev
	.weak	_ZNSt8_Rb_treeIcSt4pairIKciESt10_Select1stIS2_ESt4lessIcESaIS2_EE13_Rb_tree_implIS6_Lb1EED1Ev
	.set	_ZNSt8_Rb_treeIcSt4pairIKciESt10_Select1stIS2_ESt4lessIcESaIS2_EE13_Rb_tree_implIS6_Lb1EED1Ev,_ZNSt8_Rb_treeIcSt4pairIKciESt10_Select1stIS2_ESt4lessIcESaIS2_EE13_Rb_tree_implIS6_Lb1EED2Ev
	.section	.text._ZNSt8_Rb_treeIcSt4pairIKciESt10_Select1stIS2_ESt4lessIcESaIS2_EEC2Ev,"axG",@progbits,_ZNSt8_Rb_treeIcSt4pairIKciESt10_Select1stIS2_ESt4lessIcESaIS2_EEC5Ev,comdat
	.align 2
	.weak	_ZNSt8_Rb_treeIcSt4pairIKciESt10_Select1stIS2_ESt4lessIcESaIS2_EEC2Ev
	.type	_ZNSt8_Rb_treeIcSt4pairIKciESt10_Select1stIS2_ESt4lessIcESaIS2_EEC2Ev, @function
_ZNSt8_Rb_treeIcSt4pairIKciESt10_Select1stIS2_ESt4lessIcESaIS2_EEC2Ev:
.LFB9749:
	.cfi_startproc
	endbr64
	pushq	%rbp
	.cfi_def_cfa_offset 16
	.cfi_offset 6, -16
	movq	%rsp, %rbp
	.cfi_def_cfa_register 6
	subq	$16, %rsp
	movq	%rdi, -8(%rbp)
	movq	-8(%rbp), %rax
	movq	%rax, %rdi
	call	_ZNSt8_Rb_treeIcSt4pairIKciESt10_Select1stIS2_ESt4lessIcESaIS2_EE13_Rb_tree_implIS6_Lb1EEC1Ev
	nop
	leave
	.cfi_def_cfa 7, 8
	ret
	.cfi_endproc
.LFE9749:
	.size	_ZNSt8_Rb_treeIcSt4pairIKciESt10_Select1stIS2_ESt4lessIcESaIS2_EEC2Ev, .-_ZNSt8_Rb_treeIcSt4pairIKciESt10_Select1stIS2_ESt4lessIcESaIS2_EEC2Ev
	.weak	_ZNSt8_Rb_treeIcSt4pairIKciESt10_Select1stIS2_ESt4lessIcESaIS2_EEC1Ev
	.set	_ZNSt8_Rb_treeIcSt4pairIKciESt10_Select1stIS2_ESt4lessIcESaIS2_EEC1Ev,_ZNSt8_Rb_treeIcSt4pairIKciESt10_Select1stIS2_ESt4lessIcESaIS2_EEC2Ev
	.section	.text._ZNSt3mapIciSt4lessIcESaISt4pairIKciEEEC2Ev,"axG",@progbits,_ZNSt3mapIciSt4lessIcESaISt4pairIKciEEEC5Ev,comdat
	.align 2
	.weak	_ZNSt3mapIciSt4lessIcESaISt4pairIKciEEEC2Ev
	.type	_ZNSt3mapIciSt4lessIcESaISt4pairIKciEEEC2Ev, @function
_ZNSt3mapIciSt4lessIcESaISt4pairIKciEEEC2Ev:
.LFB9751:
	.cfi_startproc
	endbr64
	pushq	%rbp
	.cfi_def_cfa_offset 16
	.cfi_offset 6, -16
	movq	%rsp, %rbp
	.cfi_def_cfa_register 6
	subq	$16, %rsp
	movq	%rdi, -8(%rbp)
	movq	-8(%rbp), %rax
	movq	%rax, %rdi
	call	_ZNSt8_Rb_treeIcSt4pairIKciESt10_Select1stIS2_ESt4lessIcESaIS2_EEC1Ev
	nop
	leave
	.cfi_def_cfa 7, 8
	ret
	.cfi_endproc
.LFE9751:
	.size	_ZNSt3mapIciSt4lessIcESaISt4pairIKciEEEC2Ev, .-_ZNSt3mapIciSt4lessIcESaISt4pairIKciEEEC2Ev
	.weak	_ZNSt3mapIciSt4lessIcESaISt4pairIKciEEEC1Ev
	.set	_ZNSt3mapIciSt4lessIcESaISt4pairIKciEEEC1Ev,_ZNSt3mapIciSt4lessIcESaISt4pairIKciEEEC2Ev
	.section	.text._ZNSt3mapIciSt4lessIcESaISt4pairIKciEEED2Ev,"axG",@progbits,_ZNSt3mapIciSt4lessIcESaISt4pairIKciEEED5Ev,comdat
	.align 2
	.weak	_ZNSt3mapIciSt4lessIcESaISt4pairIKciEEED2Ev
	.type	_ZNSt3mapIciSt4lessIcESaISt4pairIKciEEED2Ev, @function
_ZNSt3mapIciSt4lessIcESaISt4pairIKciEEED2Ev:
.LFB9754:
	.cfi_startproc
	endbr64
	pushq	%rbp
	.cfi_def_cfa_offset 16
	.cfi_offset 6, -16
	movq	%rsp, %rbp
	.cfi_def_cfa_register 6
	subq	$16, %rsp
	movq	%rdi, -8(%rbp)
	movq	-8(%rbp), %rax
	movq	%rax, %rdi
	call	_ZNSt8_Rb_treeIcSt4pairIKciESt10_Select1stIS2_ESt4lessIcESaIS2_EED1Ev
	nop
	leave
	.cfi_def_cfa 7, 8
	ret
	.cfi_endproc
.LFE9754:
	.size	_ZNSt3mapIciSt4lessIcESaISt4pairIKciEEED2Ev, .-_ZNSt3mapIciSt4lessIcESaISt4pairIKciEEED2Ev
	.weak	_ZNSt3mapIciSt4lessIcESaISt4pairIKciEEED1Ev
	.set	_ZNSt3mapIciSt4lessIcESaISt4pairIKciEEED1Ev,_ZNSt3mapIciSt4lessIcESaISt4pairIKciEEED2Ev
	.section	.rodata
.LC0:
	.string	"a8"
.LC1:
	.string	"b8"
.LC2:
	.string	"c8"
.LC3:
	.string	"d8"
.LC4:
	.string	"e8"
.LC5:
	.string	"f8"
.LC6:
	.string	"g8"
.LC7:
	.string	"h8"
.LC8:
	.string	"a7"
.LC9:
	.string	"b7"
.LC10:
	.string	"c7"
.LC11:
	.string	"d7"
.LC12:
	.string	"e7"
.LC13:
	.string	"f7"
.LC14:
	.string	"g7"
.LC15:
	.string	"h7"
.LC16:
	.string	"a6"
.LC17:
	.string	"b6"
.LC18:
	.string	"c6"
.LC19:
	.string	"d6"
.LC20:
	.string	"e6"
.LC21:
	.string	"f6"
.LC22:
	.string	"g6"
.LC23:
	.string	"h6"
.LC24:
	.string	"a5"
.LC25:
	.string	"b5"
.LC26:
	.string	"c5"
.LC27:
	.string	"d5"
.LC28:
	.string	"e5"
.LC29:
	.string	"f5"
.LC30:
	.string	"g5"
.LC31:
	.string	"h5"
.LC32:
	.string	"a4"
.LC33:
	.string	"b4"
.LC34:
	.string	"c4"
.LC35:
	.string	"d4"
.LC36:
	.string	"e4"
.LC37:
	.string	"f4"
.LC38:
	.string	"g4"
.LC39:
	.string	"h4"
.LC40:
	.string	"a3"
.LC41:
	.string	"b3"
.LC42:
	.string	"c3"
.LC43:
	.string	"d3"
.LC44:
	.string	"e3"
.LC45:
	.string	"f3"
.LC46:
	.string	"g3"
.LC47:
	.string	"h3"
.LC48:
	.string	"a2"
.LC49:
	.string	"b2"
.LC50:
	.string	"c2"
.LC51:
	.string	"d2"
.LC52:
	.string	"e2"
.LC53:
	.string	"f2"
.LC54:
	.string	"g2"
.LC55:
	.string	"h2"
.LC56:
	.string	"a1"
.LC57:
	.string	"b1"
.LC58:
	.string	"c1"
.LC59:
	.string	"d1"
.LC60:
	.string	"e1"
.LC61:
	.string	"f1"
.LC62:
	.string	"g1"
.LC63:
	.string	"h1"
.LC64:
	.string	"none"
.LC65:
	.string	"KQRBNPkqrbnp"
.LC66:
	.string	"QRKB"
.LC67:
	.string	"qrkb"
	.text
	.align 2
	.globl	_ZN5BoardC2ENSt7__cxx1112basic_stringIcSt11char_traitsIcESaIcEEE
	.type	_ZN5BoardC2ENSt7__cxx1112basic_stringIcSt11char_traitsIcESaIcEEE, @function
_ZN5BoardC2ENSt7__cxx1112basic_stringIcSt11char_traitsIcESaIcEEE:
.LFB9756:
	.cfi_startproc
	.cfi_personality 0x9b,DW.ref.__gxx_personality_v0
	.cfi_lsda 0x1b,.LLSDA9756
	endbr64
	pushq	%rbp
	.cfi_def_cfa_offset 16
	.cfi_offset 6, -16
	movq	%rsp, %rbp
	.cfi_def_cfa_register 6
	pushq	%r15
	pushq	%r14
	pushq	%r13
	pushq	%r12
	pushq	%rbx
	subq	$2216, %rsp
	.cfi_offset 15, -24
	.cfi_offset 14, -32
	.cfi_offset 13, -40
	.cfi_offset 12, -48
	.cfi_offset 3, -56
	movq	%rdi, -2232(%rbp)
	movq	%rsi, -2240(%rbp)
	movq	%fs:40, %rax
	movq	%rax, -56(%rbp)
	xorl	%eax, %eax
	movq	-2232(%rbp), %rbx
	leaq	-2210(%rbp), %rax
	movq	%rax, %rdi
	call	_ZNSaIcEC1Ev@PLT
	leaq	-2210(%rbp), %rdx
	leaq	-2144(%rbp), %rax
	leaq	.LC0(%rip), %rcx
	movq	%rcx, %rsi
	movq	%rax, %rdi
.LEHB0:
	call	_ZNSt7__cxx1112basic_stringIcSt11char_traitsIcESaIcEEC1IS3_EEPKcRKS3_
.LEHE0:
	leaq	-2209(%rbp), %rax
	movq	%rax, %rdi
	call	_ZNSaIcEC1Ev@PLT
	leaq	-2209(%rbp), %rax
	leaq	-2144(%rbp), %rdx
	leaq	32(%rdx), %rcx
	movq	%rax, %rdx
	leaq	.LC1(%rip), %rax
	movq	%rax, %rsi
	movq	%rcx, %rdi
.LEHB1:
	call	_ZNSt7__cxx1112basic_stringIcSt11char_traitsIcESaIcEEC1IS3_EEPKcRKS3_
.LEHE1:
	leaq	-2208(%rbp), %rax
	movq	%rax, %rdi
	call	_ZNSaIcEC1Ev@PLT
	leaq	-2208(%rbp), %rax
	leaq	-2144(%rbp), %rdx
	leaq	64(%rdx), %rcx
	movq	%rax, %rdx
	leaq	.LC2(%rip), %rax
	movq	%rax, %rsi
	movq	%rcx, %rdi
.LEHB2:
	call	_ZNSt7__cxx1112basic_stringIcSt11char_traitsIcESaIcEEC1IS3_EEPKcRKS3_
.LEHE2:
	leaq	-2207(%rbp), %rax
	movq	%rax, %rdi
	call	_ZNSaIcEC1Ev@PLT
	leaq	-2207(%rbp), %rax
	leaq	-2144(%rbp), %rdx
	leaq	96(%rdx), %rcx
	movq	%rax, %rdx
	leaq	.LC3(%rip), %rax
	movq	%rax, %rsi
	movq	%rcx, %rdi
.LEHB3:
	call	_ZNSt7__cxx1112basic_stringIcSt11char_traitsIcESaIcEEC1IS3_EEPKcRKS3_
.LEHE3:
	leaq	-2206(%rbp), %rax
	movq	%rax, %rdi
	call	_ZNSaIcEC1Ev@PLT
	leaq	-2206(%rbp), %rax
	leaq	-2144(%rbp), %rdx
	leaq	128(%rdx), %rcx
	movq	%rax, %rdx
	leaq	.LC4(%rip), %rax
	movq	%rax, %rsi
	movq	%rcx, %rdi
.LEHB4:
	call	_ZNSt7__cxx1112basic_stringIcSt11char_traitsIcESaIcEEC1IS3_EEPKcRKS3_
.LEHE4:
	leaq	-2205(%rbp), %rax
	movq	%rax, %rdi
	call	_ZNSaIcEC1Ev@PLT
	leaq	-2205(%rbp), %rax
	leaq	-2144(%rbp), %rdx
	leaq	160(%rdx), %rcx
	movq	%rax, %rdx
	leaq	.LC5(%rip), %rax
	movq	%rax, %rsi
	movq	%rcx, %rdi
.LEHB5:
	call	_ZNSt7__cxx1112basic_stringIcSt11char_traitsIcESaIcEEC1IS3_EEPKcRKS3_
.LEHE5:
	leaq	-2204(%rbp), %rax
	movq	%rax, %rdi
	call	_ZNSaIcEC1Ev@PLT
	leaq	-2204(%rbp), %rax
	leaq	-2144(%rbp), %rdx
	leaq	192(%rdx), %rcx
	movq	%rax, %rdx
	leaq	.LC6(%rip), %rax
	movq	%rax, %rsi
	movq	%rcx, %rdi
.LEHB6:
	call	_ZNSt7__cxx1112basic_stringIcSt11char_traitsIcESaIcEEC1IS3_EEPKcRKS3_
.LEHE6:
	leaq	-2203(%rbp), %rax
	movq	%rax, %rdi
	call	_ZNSaIcEC1Ev@PLT
	leaq	-2203(%rbp), %rax
	leaq	-2144(%rbp), %rdx
	leaq	224(%rdx), %rcx
	movq	%rax, %rdx
	leaq	.LC7(%rip), %rax
	movq	%rax, %rsi
	movq	%rcx, %rdi
.LEHB7:
	call	_ZNSt7__cxx1112basic_stringIcSt11char_traitsIcESaIcEEC1IS3_EEPKcRKS3_
.LEHE7:
	leaq	-2202(%rbp), %rax
	movq	%rax, %rdi
	call	_ZNSaIcEC1Ev@PLT
	leaq	-2202(%rbp), %rax
	leaq	-2144(%rbp), %rdx
	leaq	256(%rdx), %rcx
	movq	%rax, %rdx
	leaq	.LC8(%rip), %rax
	movq	%rax, %rsi
	movq	%rcx, %rdi
.LEHB8:
	call	_ZNSt7__cxx1112basic_stringIcSt11char_traitsIcESaIcEEC1IS3_EEPKcRKS3_
.LEHE8:
	leaq	-2201(%rbp), %rax
	movq	%rax, %rdi
	call	_ZNSaIcEC1Ev@PLT
	leaq	-2201(%rbp), %rax
	leaq	-2144(%rbp), %rdx
	leaq	288(%rdx), %rcx
	movq	%rax, %rdx
	leaq	.LC9(%rip), %rax
	movq	%rax, %rsi
	movq	%rcx, %rdi
.LEHB9:
	call	_ZNSt7__cxx1112basic_stringIcSt11char_traitsIcESaIcEEC1IS3_EEPKcRKS3_
.LEHE9:
	leaq	-2200(%rbp), %rax
	movq	%rax, %rdi
	call	_ZNSaIcEC1Ev@PLT
	leaq	-2200(%rbp), %rax
	leaq	-2144(%rbp), %rdx
	leaq	320(%rdx), %rcx
	movq	%rax, %rdx
	leaq	.LC10(%rip), %rax
	movq	%rax, %rsi
	movq	%rcx, %rdi
.LEHB10:
	call	_ZNSt7__cxx1112basic_stringIcSt11char_traitsIcESaIcEEC1IS3_EEPKcRKS3_
.LEHE10:
	leaq	-2199(%rbp), %rax
	movq	%rax, %rdi
	call	_ZNSaIcEC1Ev@PLT
	leaq	-2199(%rbp), %rax
	leaq	-2144(%rbp), %rdx
	leaq	352(%rdx), %rcx
	movq	%rax, %rdx
	leaq	.LC11(%rip), %rax
	movq	%rax, %rsi
	movq	%rcx, %rdi
.LEHB11:
	call	_ZNSt7__cxx1112basic_stringIcSt11char_traitsIcESaIcEEC1IS3_EEPKcRKS3_
.LEHE11:
	leaq	-2198(%rbp), %rax
	movq	%rax, %rdi
	call	_ZNSaIcEC1Ev@PLT
	leaq	-2198(%rbp), %rax
	leaq	-2144(%rbp), %rdx
	leaq	384(%rdx), %rcx
	movq	%rax, %rdx
	leaq	.LC12(%rip), %rax
	movq	%rax, %rsi
	movq	%rcx, %rdi
.LEHB12:
	call	_ZNSt7__cxx1112basic_stringIcSt11char_traitsIcESaIcEEC1IS3_EEPKcRKS3_
.LEHE12:
	leaq	-2197(%rbp), %rax
	movq	%rax, %rdi
	call	_ZNSaIcEC1Ev@PLT
	leaq	-2197(%rbp), %rax
	leaq	-2144(%rbp), %rdx
	leaq	416(%rdx), %rcx
	movq	%rax, %rdx
	leaq	.LC13(%rip), %rax
	movq	%rax, %rsi
	movq	%rcx, %rdi
.LEHB13:
	call	_ZNSt7__cxx1112basic_stringIcSt11char_traitsIcESaIcEEC1IS3_EEPKcRKS3_
.LEHE13:
	leaq	-2196(%rbp), %rax
	movq	%rax, %rdi
	call	_ZNSaIcEC1Ev@PLT
	leaq	-2196(%rbp), %rax
	leaq	-2144(%rbp), %rdx
	leaq	448(%rdx), %rcx
	movq	%rax, %rdx
	leaq	.LC14(%rip), %rax
	movq	%rax, %rsi
	movq	%rcx, %rdi
.LEHB14:
	call	_ZNSt7__cxx1112basic_stringIcSt11char_traitsIcESaIcEEC1IS3_EEPKcRKS3_
.LEHE14:
	leaq	-2195(%rbp), %rax
	movq	%rax, %rdi
	call	_ZNSaIcEC1Ev@PLT
	leaq	-2195(%rbp), %rax
	leaq	-2144(%rbp), %rdx
	leaq	480(%rdx), %rcx
	movq	%rax, %rdx
	leaq	.LC15(%rip), %rax
	movq	%rax, %rsi
	movq	%rcx, %rdi
.LEHB15:
	call	_ZNSt7__cxx1112basic_stringIcSt11char_traitsIcESaIcEEC1IS3_EEPKcRKS3_
.LEHE15:
	leaq	-2194(%rbp), %rax
	movq	%rax, %rdi
	call	_ZNSaIcEC1Ev@PLT
	leaq	-2194(%rbp), %rax
	leaq	-2144(%rbp), %rdx
	leaq	512(%rdx), %rcx
	movq	%rax, %rdx
	leaq	.LC16(%rip), %rax
	movq	%rax, %rsi
	movq	%rcx, %rdi
.LEHB16:
	call	_ZNSt7__cxx1112basic_stringIcSt11char_traitsIcESaIcEEC1IS3_EEPKcRKS3_
.LEHE16:
	leaq	-2193(%rbp), %rax
	movq	%rax, %rdi
	call	_ZNSaIcEC1Ev@PLT
	leaq	-2193(%rbp), %rax
	leaq	-2144(%rbp), %rdx
	leaq	544(%rdx), %rcx
	movq	%rax, %rdx
	leaq	.LC17(%rip), %rax
	movq	%rax, %rsi
	movq	%rcx, %rdi
.LEHB17:
	call	_ZNSt7__cxx1112basic_stringIcSt11char_traitsIcESaIcEEC1IS3_EEPKcRKS3_
.LEHE17:
	leaq	-2192(%rbp), %rax
	movq	%rax, %rdi
	call	_ZNSaIcEC1Ev@PLT
	leaq	-2192(%rbp), %rax
	leaq	-2144(%rbp), %rdx
	leaq	576(%rdx), %rcx
	movq	%rax, %rdx
	leaq	.LC18(%rip), %rax
	movq	%rax, %rsi
	movq	%rcx, %rdi
.LEHB18:
	call	_ZNSt7__cxx1112basic_stringIcSt11char_traitsIcESaIcEEC1IS3_EEPKcRKS3_
.LEHE18:
	leaq	-2191(%rbp), %rax
	movq	%rax, %rdi
	call	_ZNSaIcEC1Ev@PLT
	leaq	-2191(%rbp), %rax
	leaq	-2144(%rbp), %rdx
	leaq	608(%rdx), %rcx
	movq	%rax, %rdx
	leaq	.LC19(%rip), %rax
	movq	%rax, %rsi
	movq	%rcx, %rdi
.LEHB19:
	call	_ZNSt7__cxx1112basic_stringIcSt11char_traitsIcESaIcEEC1IS3_EEPKcRKS3_
.LEHE19:
	leaq	-2190(%rbp), %rax
	movq	%rax, %rdi
	call	_ZNSaIcEC1Ev@PLT
	leaq	-2190(%rbp), %rax
	leaq	-2144(%rbp), %rdx
	leaq	640(%rdx), %rcx
	movq	%rax, %rdx
	leaq	.LC20(%rip), %rax
	movq	%rax, %rsi
	movq	%rcx, %rdi
.LEHB20:
	call	_ZNSt7__cxx1112basic_stringIcSt11char_traitsIcESaIcEEC1IS3_EEPKcRKS3_
.LEHE20:
	leaq	-2189(%rbp), %rax
	movq	%rax, %rdi
	call	_ZNSaIcEC1Ev@PLT
	leaq	-2189(%rbp), %rax
	leaq	-2144(%rbp), %rdx
	leaq	672(%rdx), %rcx
	movq	%rax, %rdx
	leaq	.LC21(%rip), %rax
	movq	%rax, %rsi
	movq	%rcx, %rdi
.LEHB21:
	call	_ZNSt7__cxx1112basic_stringIcSt11char_traitsIcESaIcEEC1IS3_EEPKcRKS3_
.LEHE21:
	leaq	-2188(%rbp), %rax
	movq	%rax, %rdi
	call	_ZNSaIcEC1Ev@PLT
	leaq	-2188(%rbp), %rax
	leaq	-2144(%rbp), %rdx
	leaq	704(%rdx), %rcx
	movq	%rax, %rdx
	leaq	.LC22(%rip), %rax
	movq	%rax, %rsi
	movq	%rcx, %rdi
.LEHB22:
	call	_ZNSt7__cxx1112basic_stringIcSt11char_traitsIcESaIcEEC1IS3_EEPKcRKS3_
.LEHE22:
	leaq	-2187(%rbp), %rax
	movq	%rax, %rdi
	call	_ZNSaIcEC1Ev@PLT
	leaq	-2187(%rbp), %rax
	leaq	-2144(%rbp), %rdx
	leaq	736(%rdx), %rcx
	movq	%rax, %rdx
	leaq	.LC23(%rip), %rax
	movq	%rax, %rsi
	movq	%rcx, %rdi
.LEHB23:
	call	_ZNSt7__cxx1112basic_stringIcSt11char_traitsIcESaIcEEC1IS3_EEPKcRKS3_
.LEHE23:
	leaq	-2186(%rbp), %rax
	movq	%rax, %rdi
	call	_ZNSaIcEC1Ev@PLT
	leaq	-2186(%rbp), %rax
	leaq	-2144(%rbp), %rdx
	leaq	768(%rdx), %rcx
	movq	%rax, %rdx
	leaq	.LC24(%rip), %rax
	movq	%rax, %rsi
	movq	%rcx, %rdi
.LEHB24:
	call	_ZNSt7__cxx1112basic_stringIcSt11char_traitsIcESaIcEEC1IS3_EEPKcRKS3_
.LEHE24:
	leaq	-2185(%rbp), %rax
	movq	%rax, %rdi
	call	_ZNSaIcEC1Ev@PLT
	leaq	-2185(%rbp), %rax
	leaq	-2144(%rbp), %rdx
	leaq	800(%rdx), %rcx
	movq	%rax, %rdx
	leaq	.LC25(%rip), %rax
	movq	%rax, %rsi
	movq	%rcx, %rdi
.LEHB25:
	call	_ZNSt7__cxx1112basic_stringIcSt11char_traitsIcESaIcEEC1IS3_EEPKcRKS3_
.LEHE25:
	leaq	-2184(%rbp), %rax
	movq	%rax, %rdi
	call	_ZNSaIcEC1Ev@PLT
	leaq	-2184(%rbp), %rax
	leaq	-2144(%rbp), %rdx
	leaq	832(%rdx), %rcx
	movq	%rax, %rdx
	leaq	.LC26(%rip), %rax
	movq	%rax, %rsi
	movq	%rcx, %rdi
.LEHB26:
	call	_ZNSt7__cxx1112basic_stringIcSt11char_traitsIcESaIcEEC1IS3_EEPKcRKS3_
.LEHE26:
	leaq	-2183(%rbp), %rax
	movq	%rax, %rdi
	call	_ZNSaIcEC1Ev@PLT
	leaq	-2183(%rbp), %rax
	leaq	-2144(%rbp), %rdx
	leaq	864(%rdx), %rcx
	movq	%rax, %rdx
	leaq	.LC27(%rip), %rax
	movq	%rax, %rsi
	movq	%rcx, %rdi
.LEHB27:
	call	_ZNSt7__cxx1112basic_stringIcSt11char_traitsIcESaIcEEC1IS3_EEPKcRKS3_
.LEHE27:
	leaq	-2182(%rbp), %rax
	movq	%rax, %rdi
	call	_ZNSaIcEC1Ev@PLT
	leaq	-2182(%rbp), %rax
	leaq	-2144(%rbp), %rdx
	leaq	896(%rdx), %rcx
	movq	%rax, %rdx
	leaq	.LC28(%rip), %rax
	movq	%rax, %rsi
	movq	%rcx, %rdi
.LEHB28:
	call	_ZNSt7__cxx1112basic_stringIcSt11char_traitsIcESaIcEEC1IS3_EEPKcRKS3_
.LEHE28:
	leaq	-2181(%rbp), %rax
	movq	%rax, %rdi
	call	_ZNSaIcEC1Ev@PLT
	leaq	-2181(%rbp), %rax
	leaq	-2144(%rbp), %rdx
	leaq	928(%rdx), %rcx
	movq	%rax, %rdx
	leaq	.LC29(%rip), %rax
	movq	%rax, %rsi
	movq	%rcx, %rdi
.LEHB29:
	call	_ZNSt7__cxx1112basic_stringIcSt11char_traitsIcESaIcEEC1IS3_EEPKcRKS3_
.LEHE29:
	leaq	-2180(%rbp), %rax
	movq	%rax, %rdi
	call	_ZNSaIcEC1Ev@PLT
	leaq	-2180(%rbp), %rax
	leaq	-2144(%rbp), %rdx
	leaq	960(%rdx), %rcx
	movq	%rax, %rdx
	leaq	.LC30(%rip), %rax
	movq	%rax, %rsi
	movq	%rcx, %rdi
.LEHB30:
	call	_ZNSt7__cxx1112basic_stringIcSt11char_traitsIcESaIcEEC1IS3_EEPKcRKS3_
.LEHE30:
	leaq	-2179(%rbp), %rax
	movq	%rax, %rdi
	call	_ZNSaIcEC1Ev@PLT
	leaq	-2179(%rbp), %rax
	leaq	-2144(%rbp), %rdx
	leaq	992(%rdx), %rcx
	movq	%rax, %rdx
	leaq	.LC31(%rip), %rax
	movq	%rax, %rsi
	movq	%rcx, %rdi
.LEHB31:
	call	_ZNSt7__cxx1112basic_stringIcSt11char_traitsIcESaIcEEC1IS3_EEPKcRKS3_
.LEHE31:
	leaq	-2178(%rbp), %rax
	movq	%rax, %rdi
	call	_ZNSaIcEC1Ev@PLT
	leaq	-2178(%rbp), %rax
	leaq	-2144(%rbp), %rdx
	leaq	1024(%rdx), %rcx
	movq	%rax, %rdx
	leaq	.LC32(%rip), %rax
	movq	%rax, %rsi
	movq	%rcx, %rdi
.LEHB32:
	call	_ZNSt7__cxx1112basic_stringIcSt11char_traitsIcESaIcEEC1IS3_EEPKcRKS3_
.LEHE32:
	leaq	-2177(%rbp), %rax
	movq	%rax, %rdi
	call	_ZNSaIcEC1Ev@PLT
	leaq	-2177(%rbp), %rax
	leaq	-2144(%rbp), %rdx
	leaq	1056(%rdx), %rcx
	movq	%rax, %rdx
	leaq	.LC33(%rip), %rax
	movq	%rax, %rsi
	movq	%rcx, %rdi
.LEHB33:
	call	_ZNSt7__cxx1112basic_stringIcSt11char_traitsIcESaIcEEC1IS3_EEPKcRKS3_
.LEHE33:
	leaq	-2176(%rbp), %rax
	movq	%rax, %rdi
	call	_ZNSaIcEC1Ev@PLT
	leaq	-2176(%rbp), %rax
	leaq	-2144(%rbp), %rdx
	leaq	1088(%rdx), %rcx
	movq	%rax, %rdx
	leaq	.LC34(%rip), %rax
	movq	%rax, %rsi
	movq	%rcx, %rdi
.LEHB34:
	call	_ZNSt7__cxx1112basic_stringIcSt11char_traitsIcESaIcEEC1IS3_EEPKcRKS3_
.LEHE34:
	leaq	-2175(%rbp), %rax
	movq	%rax, %rdi
	call	_ZNSaIcEC1Ev@PLT
	leaq	-2175(%rbp), %rax
	leaq	-2144(%rbp), %rdx
	leaq	1120(%rdx), %rcx
	movq	%rax, %rdx
	leaq	.LC35(%rip), %rax
	movq	%rax, %rsi
	movq	%rcx, %rdi
.LEHB35:
	call	_ZNSt7__cxx1112basic_stringIcSt11char_traitsIcESaIcEEC1IS3_EEPKcRKS3_
.LEHE35:
	leaq	-2174(%rbp), %rax
	movq	%rax, %rdi
	call	_ZNSaIcEC1Ev@PLT
	leaq	-2174(%rbp), %rax
	leaq	-2144(%rbp), %rdx
	leaq	1152(%rdx), %rcx
	movq	%rax, %rdx
	leaq	.LC36(%rip), %rax
	movq	%rax, %rsi
	movq	%rcx, %rdi
.LEHB36:
	call	_ZNSt7__cxx1112basic_stringIcSt11char_traitsIcESaIcEEC1IS3_EEPKcRKS3_
.LEHE36:
	leaq	-2173(%rbp), %rax
	movq	%rax, %rdi
	call	_ZNSaIcEC1Ev@PLT
	leaq	-2173(%rbp), %rax
	leaq	-2144(%rbp), %rdx
	leaq	1184(%rdx), %rcx
	movq	%rax, %rdx
	leaq	.LC37(%rip), %rax
	movq	%rax, %rsi
	movq	%rcx, %rdi
.LEHB37:
	call	_ZNSt7__cxx1112basic_stringIcSt11char_traitsIcESaIcEEC1IS3_EEPKcRKS3_
.LEHE37:
	leaq	-2172(%rbp), %rax
	movq	%rax, %rdi
	call	_ZNSaIcEC1Ev@PLT
	leaq	-2172(%rbp), %rax
	leaq	-2144(%rbp), %rdx
	leaq	1216(%rdx), %rcx
	movq	%rax, %rdx
	leaq	.LC38(%rip), %rax
	movq	%rax, %rsi
	movq	%rcx, %rdi
.LEHB38:
	call	_ZNSt7__cxx1112basic_stringIcSt11char_traitsIcESaIcEEC1IS3_EEPKcRKS3_
.LEHE38:
	leaq	-2171(%rbp), %rax
	movq	%rax, %rdi
	call	_ZNSaIcEC1Ev@PLT
	leaq	-2171(%rbp), %rax
	leaq	-2144(%rbp), %rdx
	leaq	1248(%rdx), %rcx
	movq	%rax, %rdx
	leaq	.LC39(%rip), %rax
	movq	%rax, %rsi
	movq	%rcx, %rdi
.LEHB39:
	call	_ZNSt7__cxx1112basic_stringIcSt11char_traitsIcESaIcEEC1IS3_EEPKcRKS3_
.LEHE39:
	leaq	-2170(%rbp), %rax
	movq	%rax, %rdi
	call	_ZNSaIcEC1Ev@PLT
	leaq	-2170(%rbp), %rax
	leaq	-2144(%rbp), %rdx
	leaq	1280(%rdx), %rcx
	movq	%rax, %rdx
	leaq	.LC40(%rip), %rax
	movq	%rax, %rsi
	movq	%rcx, %rdi
.LEHB40:
	call	_ZNSt7__cxx1112basic_stringIcSt11char_traitsIcESaIcEEC1IS3_EEPKcRKS3_
.LEHE40:
	leaq	-2169(%rbp), %rax
	movq	%rax, %rdi
	call	_ZNSaIcEC1Ev@PLT
	leaq	-2169(%rbp), %rax
	leaq	-2144(%rbp), %rdx
	leaq	1312(%rdx), %rcx
	movq	%rax, %rdx
	leaq	.LC41(%rip), %rax
	movq	%rax, %rsi
	movq	%rcx, %rdi
.LEHB41:
	call	_ZNSt7__cxx1112basic_stringIcSt11char_traitsIcESaIcEEC1IS3_EEPKcRKS3_
.LEHE41:
	leaq	-2168(%rbp), %rax
	movq	%rax, %rdi
	call	_ZNSaIcEC1Ev@PLT
	leaq	-2168(%rbp), %rax
	leaq	-2144(%rbp), %rdx
	leaq	1344(%rdx), %rcx
	movq	%rax, %rdx
	leaq	.LC42(%rip), %rax
	movq	%rax, %rsi
	movq	%rcx, %rdi
.LEHB42:
	call	_ZNSt7__cxx1112basic_stringIcSt11char_traitsIcESaIcEEC1IS3_EEPKcRKS3_
.LEHE42:
	leaq	-2167(%rbp), %rax
	movq	%rax, %rdi
	call	_ZNSaIcEC1Ev@PLT
	leaq	-2167(%rbp), %rax
	leaq	-2144(%rbp), %rdx
	leaq	1376(%rdx), %rcx
	movq	%rax, %rdx
	leaq	.LC43(%rip), %rax
	movq	%rax, %rsi
	movq	%rcx, %rdi
.LEHB43:
	call	_ZNSt7__cxx1112basic_stringIcSt11char_traitsIcESaIcEEC1IS3_EEPKcRKS3_
.LEHE43:
	leaq	-2166(%rbp), %rax
	movq	%rax, %rdi
	call	_ZNSaIcEC1Ev@PLT
	leaq	-2166(%rbp), %rax
	leaq	-2144(%rbp), %rdx
	leaq	1408(%rdx), %rcx
	movq	%rax, %rdx
	leaq	.LC44(%rip), %rax
	movq	%rax, %rsi
	movq	%rcx, %rdi
.LEHB44:
	call	_ZNSt7__cxx1112basic_stringIcSt11char_traitsIcESaIcEEC1IS3_EEPKcRKS3_
.LEHE44:
	leaq	-2165(%rbp), %rax
	movq	%rax, %rdi
	call	_ZNSaIcEC1Ev@PLT
	leaq	-2165(%rbp), %rax
	leaq	-2144(%rbp), %rdx
	leaq	1440(%rdx), %rcx
	movq	%rax, %rdx
	leaq	.LC45(%rip), %rax
	movq	%rax, %rsi
	movq	%rcx, %rdi
.LEHB45:
	call	_ZNSt7__cxx1112basic_stringIcSt11char_traitsIcESaIcEEC1IS3_EEPKcRKS3_
.LEHE45:
	leaq	-2164(%rbp), %rax
	movq	%rax, %rdi
	call	_ZNSaIcEC1Ev@PLT
	leaq	-2164(%rbp), %rax
	leaq	-2144(%rbp), %rdx
	leaq	1472(%rdx), %rcx
	movq	%rax, %rdx
	leaq	.LC46(%rip), %rax
	movq	%rax, %rsi
	movq	%rcx, %rdi
.LEHB46:
	call	_ZNSt7__cxx1112basic_stringIcSt11char_traitsIcESaIcEEC1IS3_EEPKcRKS3_
.LEHE46:
	leaq	-2163(%rbp), %rax
	movq	%rax, %rdi
	call	_ZNSaIcEC1Ev@PLT
	leaq	-2163(%rbp), %rax
	leaq	-2144(%rbp), %rdx
	leaq	1504(%rdx), %rcx
	movq	%rax, %rdx
	leaq	.LC47(%rip), %rax
	movq	%rax, %rsi
	movq	%rcx, %rdi
.LEHB47:
	call	_ZNSt7__cxx1112basic_stringIcSt11char_traitsIcESaIcEEC1IS3_EEPKcRKS3_
.LEHE47:
	leaq	-2162(%rbp), %rax
	movq	%rax, %rdi
	call	_ZNSaIcEC1Ev@PLT
	leaq	-2162(%rbp), %rax
	leaq	-2144(%rbp), %rdx
	leaq	1536(%rdx), %rcx
	movq	%rax, %rdx
	leaq	.LC48(%rip), %rax
	movq	%rax, %rsi
	movq	%rcx, %rdi
.LEHB48:
	call	_ZNSt7__cxx1112basic_stringIcSt11char_traitsIcESaIcEEC1IS3_EEPKcRKS3_
.LEHE48:
	leaq	-2161(%rbp), %rax
	movq	%rax, %rdi
	call	_ZNSaIcEC1Ev@PLT
	leaq	-2161(%rbp), %rax
	leaq	-2144(%rbp), %rdx
	leaq	1568(%rdx), %rcx
	movq	%rax, %rdx
	leaq	.LC49(%rip), %rax
	movq	%rax, %rsi
	movq	%rcx, %rdi
.LEHB49:
	call	_ZNSt7__cxx1112basic_stringIcSt11char_traitsIcESaIcEEC1IS3_EEPKcRKS3_
.LEHE49:
	leaq	-2160(%rbp), %rax
	movq	%rax, %rdi
	call	_ZNSaIcEC1Ev@PLT
	leaq	-2160(%rbp), %rax
	leaq	-2144(%rbp), %rdx
	leaq	1600(%rdx), %rcx
	movq	%rax, %rdx
	leaq	.LC50(%rip), %rax
	movq	%rax, %rsi
	movq	%rcx, %rdi
.LEHB50:
	call	_ZNSt7__cxx1112basic_stringIcSt11char_traitsIcESaIcEEC1IS3_EEPKcRKS3_
.LEHE50:
	leaq	-2159(%rbp), %rax
	movq	%rax, %rdi
	call	_ZNSaIcEC1Ev@PLT
	leaq	-2159(%rbp), %rax
	leaq	-2144(%rbp), %rdx
	leaq	1632(%rdx), %rcx
	movq	%rax, %rdx
	leaq	.LC51(%rip), %rax
	movq	%rax, %rsi
	movq	%rcx, %rdi
.LEHB51:
	call	_ZNSt7__cxx1112basic_stringIcSt11char_traitsIcESaIcEEC1IS3_EEPKcRKS3_
.LEHE51:
	leaq	-2158(%rbp), %rax
	movq	%rax, %rdi
	call	_ZNSaIcEC1Ev@PLT
	leaq	-2158(%rbp), %rax
	leaq	-2144(%rbp), %rdx
	leaq	1664(%rdx), %rcx
	movq	%rax, %rdx
	leaq	.LC52(%rip), %rax
	movq	%rax, %rsi
	movq	%rcx, %rdi
.LEHB52:
	call	_ZNSt7__cxx1112basic_stringIcSt11char_traitsIcESaIcEEC1IS3_EEPKcRKS3_
.LEHE52:
	leaq	-2157(%rbp), %rax
	movq	%rax, %rdi
	call	_ZNSaIcEC1Ev@PLT
	leaq	-2157(%rbp), %rax
	leaq	-2144(%rbp), %rdx
	leaq	1696(%rdx), %rcx
	movq	%rax, %rdx
	leaq	.LC53(%rip), %rax
	movq	%rax, %rsi
	movq	%rcx, %rdi
.LEHB53:
	call	_ZNSt7__cxx1112basic_stringIcSt11char_traitsIcESaIcEEC1IS3_EEPKcRKS3_
.LEHE53:
	leaq	-2156(%rbp), %rax
	movq	%rax, %rdi
	call	_ZNSaIcEC1Ev@PLT
	leaq	-2156(%rbp), %rax
	leaq	-2144(%rbp), %rdx
	leaq	1728(%rdx), %rcx
	movq	%rax, %rdx
	leaq	.LC54(%rip), %rax
	movq	%rax, %rsi
	movq	%rcx, %rdi
.LEHB54:
	call	_ZNSt7__cxx1112basic_stringIcSt11char_traitsIcESaIcEEC1IS3_EEPKcRKS3_
.LEHE54:
	leaq	-2155(%rbp), %rax
	movq	%rax, %rdi
	call	_ZNSaIcEC1Ev@PLT
	leaq	-2155(%rbp), %rax
	leaq	-2144(%rbp), %rdx
	leaq	1760(%rdx), %rcx
	movq	%rax, %rdx
	leaq	.LC55(%rip), %rax
	movq	%rax, %rsi
	movq	%rcx, %rdi
.LEHB55:
	call	_ZNSt7__cxx1112basic_stringIcSt11char_traitsIcESaIcEEC1IS3_EEPKcRKS3_
.LEHE55:
	leaq	-2154(%rbp), %rax
	movq	%rax, %rdi
	call	_ZNSaIcEC1Ev@PLT
	leaq	-2154(%rbp), %rax
	leaq	-2144(%rbp), %rdx
	leaq	1792(%rdx), %rcx
	movq	%rax, %rdx
	leaq	.LC56(%rip), %rax
	movq	%rax, %rsi
	movq	%rcx, %rdi
.LEHB56:
	call	_ZNSt7__cxx1112basic_stringIcSt11char_traitsIcESaIcEEC1IS3_EEPKcRKS3_
.LEHE56:
	leaq	-2153(%rbp), %rax
	movq	%rax, %rdi
	call	_ZNSaIcEC1Ev@PLT
	leaq	-2153(%rbp), %rax
	leaq	-2144(%rbp), %rdx
	leaq	1824(%rdx), %rcx
	movq	%rax, %rdx
	leaq	.LC57(%rip), %rax
	movq	%rax, %rsi
	movq	%rcx, %rdi
.LEHB57:
	call	_ZNSt7__cxx1112basic_stringIcSt11char_traitsIcESaIcEEC1IS3_EEPKcRKS3_
.LEHE57:
	leaq	-2152(%rbp), %rax
	movq	%rax, %rdi
	call	_ZNSaIcEC1Ev@PLT
	leaq	-2152(%rbp), %rax
	leaq	-2144(%rbp), %rdx
	leaq	1856(%rdx), %rcx
	movq	%rax, %rdx
	leaq	.LC58(%rip), %rax
	movq	%rax, %rsi
	movq	%rcx, %rdi
.LEHB58:
	call	_ZNSt7__cxx1112basic_stringIcSt11char_traitsIcESaIcEEC1IS3_EEPKcRKS3_
.LEHE58:
	leaq	-2151(%rbp), %rax
	movq	%rax, %rdi
	call	_ZNSaIcEC1Ev@PLT
	leaq	-2151(%rbp), %rax
	leaq	-2144(%rbp), %rdx
	leaq	1888(%rdx), %rcx
	movq	%rax, %rdx
	leaq	.LC59(%rip), %rax
	movq	%rax, %rsi
	movq	%rcx, %rdi
.LEHB59:
	call	_ZNSt7__cxx1112basic_stringIcSt11char_traitsIcESaIcEEC1IS3_EEPKcRKS3_
.LEHE59:
	leaq	-2150(%rbp), %rax
	movq	%rax, %rdi
	call	_ZNSaIcEC1Ev@PLT
	leaq	-2150(%rbp), %rax
	leaq	-2144(%rbp), %rdx
	leaq	1920(%rdx), %rcx
	movq	%rax, %rdx
	leaq	.LC60(%rip), %rax
	movq	%rax, %rsi
	movq	%rcx, %rdi
.LEHB60:
	call	_ZNSt7__cxx1112basic_stringIcSt11char_traitsIcESaIcEEC1IS3_EEPKcRKS3_
.LEHE60:
	leaq	-2149(%rbp), %rax
	movq	%rax, %rdi
	call	_ZNSaIcEC1Ev@PLT
	leaq	-2149(%rbp), %rax
	leaq	-2144(%rbp), %rdx
	leaq	1952(%rdx), %rcx
	movq	%rax, %rdx
	leaq	.LC61(%rip), %rax
	movq	%rax, %rsi
	movq	%rcx, %rdi
.LEHB61:
	call	_ZNSt7__cxx1112basic_stringIcSt11char_traitsIcESaIcEEC1IS3_EEPKcRKS3_
.LEHE61:
	leaq	-2148(%rbp), %rax
	movq	%rax, %rdi
	call	_ZNSaIcEC1Ev@PLT
	leaq	-2148(%rbp), %rax
	leaq	-2144(%rbp), %rdx
	leaq	1984(%rdx), %rcx
	movq	%rax, %rdx
	leaq	.LC62(%rip), %rax
	movq	%rax, %rsi
	movq	%rcx, %rdi
.LEHB62:
	call	_ZNSt7__cxx1112basic_stringIcSt11char_traitsIcESaIcEEC1IS3_EEPKcRKS3_
.LEHE62:
	leaq	-2147(%rbp), %rax
	movq	%rax, %rdi
	call	_ZNSaIcEC1Ev@PLT
	leaq	-2147(%rbp), %rax
	leaq	-2144(%rbp), %rdx
	leaq	2016(%rdx), %rcx
	movq	%rax, %rdx
	leaq	.LC63(%rip), %rax
	movq	%rax, %rsi
	movq	%rcx, %rdi
.LEHB63:
	call	_ZNSt7__cxx1112basic_stringIcSt11char_traitsIcESaIcEEC1IS3_EEPKcRKS3_
.LEHE63:
	leaq	-2146(%rbp), %rax
	movq	%rax, %rdi
	call	_ZNSaIcEC1Ev@PLT
	leaq	-2146(%rbp), %rax
	leaq	-2144(%rbp), %rdx
	leaq	2048(%rdx), %rcx
	movq	%rax, %rdx
	leaq	.LC64(%rip), %rax
	movq	%rax, %rsi
	movq	%rcx, %rdi
.LEHB64:
	call	_ZNSt7__cxx1112basic_stringIcSt11char_traitsIcESaIcEEC1IS3_EEPKcRKS3_
.LEHE64:
	leaq	-2144(%rbp), %rax
	movq	%rax, -2256(%rbp)
	movq	$65, -2248(%rbp)
	leaq	-2145(%rbp), %rax
	movq	%rax, %rdi
	call	_ZNSaINSt7__cxx1112basic_stringIcSt11char_traitsIcESaIcEEEEC1Ev
	leaq	-2145(%rbp), %rax
	movq	-2256(%rbp), %rsi
	movq	-2248(%rbp), %rdi
	movq	%rsi, %r8
	movq	%rdi, %r9
	movq	%rdi, %rdx
	movq	%rax, %rcx
	movq	%r8, %rsi
	movq	%rbx, %rdi
.LEHB65:
	call	_ZNSt6vectorINSt7__cxx1112basic_stringIcSt11char_traitsIcESaIcEEESaIS5_EEC1ESt16initializer_listIS5_ERKS6_
.LEHE65:
	leaq	-2145(%rbp), %rax
	movq	%rax, %rdi
	call	_ZNSaINSt7__cxx1112basic_stringIcSt11char_traitsIcESaIcEEEED1Ev
	leaq	-2144(%rbp), %rbx
	addq	$2080, %rbx
.L38:
	leaq	-2144(%rbp), %rax
	cmpq	%rax, %rbx
	je	.L37
	subq	$32, %rbx
	movq	%rbx, %rdi
	call	_ZNSt7__cxx1112basic_stringIcSt11char_traitsIcESaIcEED1Ev@PLT
	jmp	.L38
.L37:
	leaq	-2146(%rbp), %rax
	movq	%rax, %rdi
	call	_ZNSaIcED1Ev@PLT
	leaq	-2147(%rbp), %rax
	movq	%rax, %rdi
	call	_ZNSaIcED1Ev@PLT
	leaq	-2148(%rbp), %rax
	movq	%rax, %rdi
	call	_ZNSaIcED1Ev@PLT
	leaq	-2149(%rbp), %rax
	movq	%rax, %rdi
	call	_ZNSaIcED1Ev@PLT
	leaq	-2150(%rbp), %rax
	movq	%rax, %rdi
	call	_ZNSaIcED1Ev@PLT
	leaq	-2151(%rbp), %rax
	movq	%rax, %rdi
	call	_ZNSaIcED1Ev@PLT
	leaq	-2152(%rbp), %rax
	movq	%rax, %rdi
	call	_ZNSaIcED1Ev@PLT
	leaq	-2153(%rbp), %rax
	movq	%rax, %rdi
	call	_ZNSaIcED1Ev@PLT
	leaq	-2154(%rbp), %rax
	movq	%rax, %rdi
	call	_ZNSaIcED1Ev@PLT
	leaq	-2155(%rbp), %rax
	movq	%rax, %rdi
	call	_ZNSaIcED1Ev@PLT
	leaq	-2156(%rbp), %rax
	movq	%rax, %rdi
	call	_ZNSaIcED1Ev@PLT
	leaq	-2157(%rbp), %rax
	movq	%rax, %rdi
	call	_ZNSaIcED1Ev@PLT
	leaq	-2158(%rbp), %rax
	movq	%rax, %rdi
	call	_ZNSaIcED1Ev@PLT
	leaq	-2159(%rbp), %rax
	movq	%rax, %rdi
	call	_ZNSaIcED1Ev@PLT
	leaq	-2160(%rbp), %rax
	movq	%rax, %rdi
	call	_ZNSaIcED1Ev@PLT
	leaq	-2161(%rbp), %rax
	movq	%rax, %rdi
	call	_ZNSaIcED1Ev@PLT
	leaq	-2162(%rbp), %rax
	movq	%rax, %rdi
	call	_ZNSaIcED1Ev@PLT
	leaq	-2163(%rbp), %rax
	movq	%rax, %rdi
	call	_ZNSaIcED1Ev@PLT
	leaq	-2164(%rbp), %rax
	movq	%rax, %rdi
	call	_ZNSaIcED1Ev@PLT
	leaq	-2165(%rbp), %rax
	movq	%rax, %rdi
	call	_ZNSaIcED1Ev@PLT
	leaq	-2166(%rbp), %rax
	movq	%rax, %rdi
	call	_ZNSaIcED1Ev@PLT
	leaq	-2167(%rbp), %rax
	movq	%rax, %rdi
	call	_ZNSaIcED1Ev@PLT
	leaq	-2168(%rbp), %rax
	movq	%rax, %rdi
	call	_ZNSaIcED1Ev@PLT
	leaq	-2169(%rbp), %rax
	movq	%rax, %rdi
	call	_ZNSaIcED1Ev@PLT
	leaq	-2170(%rbp), %rax
	movq	%rax, %rdi
	call	_ZNSaIcED1Ev@PLT
	leaq	-2171(%rbp), %rax
	movq	%rax, %rdi
	call	_ZNSaIcED1Ev@PLT
	leaq	-2172(%rbp), %rax
	movq	%rax, %rdi
	call	_ZNSaIcED1Ev@PLT
	leaq	-2173(%rbp), %rax
	movq	%rax, %rdi
	call	_ZNSaIcED1Ev@PLT
	leaq	-2174(%rbp), %rax
	movq	%rax, %rdi
	call	_ZNSaIcED1Ev@PLT
	leaq	-2175(%rbp), %rax
	movq	%rax, %rdi
	call	_ZNSaIcED1Ev@PLT
	leaq	-2176(%rbp), %rax
	movq	%rax, %rdi
	call	_ZNSaIcED1Ev@PLT
	leaq	-2177(%rbp), %rax
	movq	%rax, %rdi
	call	_ZNSaIcED1Ev@PLT
	leaq	-2178(%rbp), %rax
	movq	%rax, %rdi
	call	_ZNSaIcED1Ev@PLT
	leaq	-2179(%rbp), %rax
	movq	%rax, %rdi
	call	_ZNSaIcED1Ev@PLT
	leaq	-2180(%rbp), %rax
	movq	%rax, %rdi
	call	_ZNSaIcED1Ev@PLT
	leaq	-2181(%rbp), %rax
	movq	%rax, %rdi
	call	_ZNSaIcED1Ev@PLT
	leaq	-2182(%rbp), %rax
	movq	%rax, %rdi
	call	_ZNSaIcED1Ev@PLT
	leaq	-2183(%rbp), %rax
	movq	%rax, %rdi
	call	_ZNSaIcED1Ev@PLT
	leaq	-2184(%rbp), %rax
	movq	%rax, %rdi
	call	_ZNSaIcED1Ev@PLT
	leaq	-2185(%rbp), %rax
	movq	%rax, %rdi
	call	_ZNSaIcED1Ev@PLT
	leaq	-2186(%rbp), %rax
	movq	%rax, %rdi
	call	_ZNSaIcED1Ev@PLT
	leaq	-2187(%rbp), %rax
	movq	%rax, %rdi
	call	_ZNSaIcED1Ev@PLT
	leaq	-2188(%rbp), %rax
	movq	%rax, %rdi
	call	_ZNSaIcED1Ev@PLT
	leaq	-2189(%rbp), %rax
	movq	%rax, %rdi
	call	_ZNSaIcED1Ev@PLT
	leaq	-2190(%rbp), %rax
	movq	%rax, %rdi
	call	_ZNSaIcED1Ev@PLT
	leaq	-2191(%rbp), %rax
	movq	%rax, %rdi
	call	_ZNSaIcED1Ev@PLT
	leaq	-2192(%rbp), %rax
	movq	%rax, %rdi
	call	_ZNSaIcED1Ev@PLT
	leaq	-2193(%rbp), %rax
	movq	%rax, %rdi
	call	_ZNSaIcED1Ev@PLT
	leaq	-2194(%rbp), %rax
	movq	%rax, %rdi
	call	_ZNSaIcED1Ev@PLT
	leaq	-2195(%rbp), %rax
	movq	%rax, %rdi
	call	_ZNSaIcED1Ev@PLT
	leaq	-2196(%rbp), %rax
	movq	%rax, %rdi
	call	_ZNSaIcED1Ev@PLT
	leaq	-2197(%rbp), %rax
	movq	%rax, %rdi
	call	_ZNSaIcED1Ev@PLT
	leaq	-2198(%rbp), %rax
	movq	%rax, %rdi
	call	_ZNSaIcED1Ev@PLT
	leaq	-2199(%rbp), %rax
	movq	%rax, %rdi
	call	_ZNSaIcED1Ev@PLT
	leaq	-2200(%rbp), %rax
	movq	%rax, %rdi
	call	_ZNSaIcED1Ev@PLT
	leaq	-2201(%rbp), %rax
	movq	%rax, %rdi
	call	_ZNSaIcED1Ev@PLT
	leaq	-2202(%rbp), %rax
	movq	%rax, %rdi
	call	_ZNSaIcED1Ev@PLT
	leaq	-2203(%rbp), %rax
	movq	%rax, %rdi
	call	_ZNSaIcED1Ev@PLT
	leaq	-2204(%rbp), %rax
	movq	%rax, %rdi
	call	_ZNSaIcED1Ev@PLT
	leaq	-2205(%rbp), %rax
	movq	%rax, %rdi
	call	_ZNSaIcED1Ev@PLT
	leaq	-2206(%rbp), %rax
	movq	%rax, %rdi
	call	_ZNSaIcED1Ev@PLT
	leaq	-2207(%rbp), %rax
	movq	%rax, %rdi
	call	_ZNSaIcED1Ev@PLT
	leaq	-2208(%rbp), %rax
	movq	%rax, %rdi
	call	_ZNSaIcED1Ev@PLT
	leaq	-2209(%rbp), %rax
	movq	%rax, %rdi
	call	_ZNSaIcED1Ev@PLT
	leaq	-2210(%rbp), %rax
	movq	%rax, %rdi
	call	_ZNSaIcED1Ev@PLT
	movq	-2232(%rbp), %rax
	leaq	24(%rax), %rbx
	leaq	-2145(%rbp), %rax
	movq	%rax, %rdi
	call	_ZNSaIcEC1Ev@PLT
	leaq	-2145(%rbp), %rax
	movq	%rax, %rdx
	leaq	.LC65(%rip), %rax
	movq	%rax, %rsi
	movq	%rbx, %rdi
.LEHB66:
	call	_ZNSt7__cxx1112basic_stringIcSt11char_traitsIcESaIcEEC1IS3_EEPKcRKS3_
.LEHE66:
	leaq	-2145(%rbp), %rax
	movq	%rax, %rdi
	call	_ZNSaIcED1Ev@PLT
	movq	-2232(%rbp), %rax
	leaq	56(%rax), %rbx
	leaq	-2145(%rbp), %rax
	movq	%rax, %rdi
	call	_ZNSaIcEC1Ev@PLT
	leaq	-2145(%rbp), %rax
	movq	%rax, %rdx
	leaq	.LC66(%rip), %rax
	movq	%rax, %rsi
	movq	%rbx, %rdi
.LEHB67:
	call	_ZNSt7__cxx1112basic_stringIcSt11char_traitsIcESaIcEEC1IS3_EEPKcRKS3_
.LEHE67:
	leaq	-2145(%rbp), %rax
	movq	%rax, %rdi
	call	_ZNSaIcED1Ev@PLT
	movq	-2232(%rbp), %rax
	leaq	88(%rax), %rbx
	leaq	-2145(%rbp), %rax
	movq	%rax, %rdi
	call	_ZNSaIcEC1Ev@PLT
	leaq	-2145(%rbp), %rax
	movq	%rax, %rdx
	leaq	.LC67(%rip), %rax
	movq	%rax, %rsi
	movq	%rbx, %rdi
.LEHB68:
	call	_ZNSt7__cxx1112basic_stringIcSt11char_traitsIcESaIcEEC1IS3_EEPKcRKS3_
.LEHE68:
	leaq	-2145(%rbp), %rax
	movq	%rax, %rdi
	call	_ZNSaIcED1Ev@PLT
	movq	-2232(%rbp), %rax
	addq	$120, %rax
	movq	%rax, %rdi
	call	_ZNSt3mapIcySt4lessIcESaISt4pairIKcyEEEC1Ev
	movq	-2232(%rbp), %rax
	movl	$64, 172(%rax)
	movq	-2232(%rbp), %rax
	movabsq	$-72340172838076674, %rsi
	movq	%rsi, 184(%rax)
	movq	-2232(%rbp), %rax
	movabsq	$9187201950435737471, %rsi
	movq	%rsi, 192(%rax)
	movq	-2232(%rbp), %rax
	movabsq	$4557430888798830399, %rsi
	movq	%rsi, 200(%rax)
	movq	-2232(%rbp), %rax
	movabsq	$-217020518514230020, %rsi
	movq	%rsi, 208(%rax)
	movq	-2232(%rbp), %rax
	addq	$216, %rax
	movq	%rax, %rdi
	call	_ZNSt6vectorIySaIyEEC1Ev
	movq	-2232(%rbp), %rax
	addq	$240, %rax
	movq	%rax, %rdi
	call	_ZNSt6vectorIySaIyEEC1Ev
	movq	-2232(%rbp), %rax
	movl	$0, 2361608(%rax)
	movq	-2232(%rbp), %rax
	movl	$47, 2361612(%rax)
	movq	-2232(%rbp), %rax
	movl	$1, 2361616(%rax)
	movq	-2232(%rbp), %rax
	movl	$56, 2361620(%rax)
	movq	-2232(%rbp), %rax
	movl	$48, 2361624(%rax)
	movq	-2232(%rbp), %rax
	movl	$27, 2361628(%rax)
	movq	-2232(%rbp), %rax
	movl	$2, 2361632(%rax)
	movq	-2232(%rbp), %rax
	movl	$60, 2361636(%rax)
	movq	-2232(%rbp), %rax
	movl	$57, 2361640(%rax)
	movq	-2232(%rbp), %rax
	movl	$49, 2361644(%rax)
	movq	-2232(%rbp), %rax
	movl	$41, 2361648(%rax)
	movq	-2232(%rbp), %rax
	movl	$37, 2361652(%rax)
	movq	-2232(%rbp), %rax
	movl	$28, 2361656(%rax)
	movq	-2232(%rbp), %rax
	movl	$16, 2361660(%rax)
	movq	-2232(%rbp), %rax
	movl	$3, 2361664(%rax)
	movq	-2232(%rbp), %rax
	movl	$61, 2361668(%rax)
	movq	-2232(%rbp), %rax
	movl	$54, 2361672(%rax)
	movq	-2232(%rbp), %rax
	movl	$58, 2361676(%rax)
	movq	-2232(%rbp), %rax
	movl	$35, 2361680(%rax)
	movq	-2232(%rbp), %rax
	movl	$52, 2361684(%rax)
	movq	-2232(%rbp), %rax
	movl	$50, 2361688(%rax)
	movq	-2232(%rbp), %rax
	movl	$42, 2361692(%rax)
	movq	-2232(%rbp), %rax
	movl	$21, 2361696(%rax)
	movq	-2232(%rbp), %rax
	movl	$44, 2361700(%rax)
	movq	-2232(%rbp), %rax
	movl	$38, 2361704(%rax)
	movq	-2232(%rbp), %rax
	movl	$32, 2361708(%rax)
	movq	-2232(%rbp), %rax
	movl	$29, 2361712(%rax)
	movq	-2232(%rbp), %rax
	movl	$23, 2361716(%rax)
	movq	-2232(%rbp), %rax
	movl	$17, 2361720(%rax)
	movq	-2232(%rbp), %rax
	movl	$11, 2361724(%rax)
	movq	-2232(%rbp), %rax
	movl	$4, 2361728(%rax)
	movq	-2232(%rbp), %rax
	movl	$62, 2361732(%rax)
	movq	-2232(%rbp), %rax
	movl	$46, 2361736(%rax)
	movq	-2232(%rbp), %rax
	movl	$55, 2361740(%rax)
	movq	-2232(%rbp), %rax
	movl	$26, 2361744(%rax)
	movq	-2232(%rbp), %rax
	movl	$59, 2361748(%rax)
	movq	-2232(%rbp), %rax
	movl	$40, 2361752(%rax)
	movq	-2232(%rbp), %rax
	movl	$36, 2361756(%rax)
	movq	-2232(%rbp), %rax
	movl	$15, 2361760(%rax)
	movq	-2232(%rbp), %rax
	movl	$53, 2361764(%rax)
	movq	-2232(%rbp), %rax
	movl	$34, 2361768(%rax)
	movq	-2232(%rbp), %rax
	movl	$51, 2361772(%rax)
	movq	-2232(%rbp), %rax
	movl	$20, 2361776(%rax)
	movq	-2232(%rbp), %rax
	movl	$43, 2361780(%rax)
	movq	-2232(%rbp), %rax
	movl	$31, 2361784(%rax)
	movq	-2232(%rbp), %rax
	movl	$22, 2361788(%rax)
	movq	-2232(%rbp), %rax
	movl	$10, 2361792(%rax)
	movq	-2232(%rbp), %rax
	movl	$45, 2361796(%rax)
	movq	-2232(%rbp), %rax
	movl	$25, 2361800(%rax)
	movq	-2232(%rbp), %rax
	movl	$39, 2361804(%rax)
	movq	-2232(%rbp), %rax
	movl	$14, 2361808(%rax)
	movq	-2232(%rbp), %rax
	movl	$33, 2361812(%rax)
	movq	-2232(%rbp), %rax
	movl	$19, 2361816(%rax)
	movq	-2232(%rbp), %rax
	movl	$30, 2361820(%rax)
	movq	-2232(%rbp), %rax
	movl	$9, 2361824(%rax)
	movq	-2232(%rbp), %rax
	movl	$24, 2361828(%rax)
	movq	-2232(%rbp), %rax
	movl	$13, 2361832(%rax)
	movq	-2232(%rbp), %rax
	movl	$18, 2361836(%rax)
	movq	-2232(%rbp), %rax
	movl	$8, 2361840(%rax)
	movq	-2232(%rbp), %rax
	movl	$12, 2361844(%rax)
	movq	-2232(%rbp), %rax
	movl	$7, 2361848(%rax)
	movq	-2232(%rbp), %rax
	movl	$6, 2361852(%rax)
	movq	-2232(%rbp), %rax
	movl	$5, 2361856(%rax)
	movq	-2232(%rbp), %rax
	movl	$63, 2361860(%rax)
	movq	-2232(%rbp), %rax
	leaq	2361864(%rax), %rbx
	leaq	C.0.0(%rip), %r14
	movl	$64, %r15d
	leaq	-2145(%rbp), %rax
	movq	%rax, %rdi
	call	_ZNSaIyEC1Ev
	leaq	-2145(%rbp), %rax
	movq	%r14, %r8
	movq	%r15, %r9
	movq	%r14, %rsi
	movq	%r15, %rdi
	movq	%rdi, %rdx
	movq	%rax, %rcx
	movq	%r8, %rsi
	movq	%rbx, %rdi
.LEHB69:
	call	_ZNSt6vectorIySaIyEEC1ESt16initializer_listIyERKS0_
.LEHE69:
	leaq	-2145(%rbp), %rax
	movq	%rax, %rdi
	call	_ZNSaIyED1Ev
	movq	-2232(%rbp), %rax
	leaq	2361888(%rax), %rbx
	leaq	C.1.1(%rip), %r12
	movl	$64, %r13d
	leaq	-2145(%rbp), %rax
	movq	%rax, %rdi
	call	_ZNSaIyEC1Ev
	leaq	-2145(%rbp), %rax
	movq	%r12, %r8
	movq	%r13, %r9
	movq	%r12, %rsi
	movq	%r13, %rdi
	movq	%rdi, %rdx
	movq	%rax, %rcx
	movq	%r8, %rsi
	movq	%rbx, %rdi
.LEHB70:
	call	_ZNSt6vectorIySaIyEEC1ESt16initializer_listIyERKS0_
.LEHE70:
	leaq	-2145(%rbp), %rax
	movq	%rax, %rdi
	call	_ZNSaIyED1Ev
	movq	-2232(%rbp), %rax
	movl	$0, 2361912(%rax)
	movq	-2232(%rbp), %rax
	movl	$0, 2361916(%rax)
	movq	-2232(%rbp), %rax
	movl	$0, 2361920(%rax)
	movq	-2232(%rbp), %rax
	movl	$0, 2361924(%rax)
	movq	-2232(%rbp), %rax
	movl	$0, 2361928(%rax)
	movq	-2232(%rbp), %rax
	addq	$2361936, %rax
	movq	%rax, %rdi
	call	_ZNSt3mapINSt7__cxx1112basic_stringIcSt11char_traitsIcESaIcEEEiSt4lessIS5_ESaISt4pairIKS5_iEEEC1Ev
	movq	-2232(%rbp), %rax
	addq	$2361984, %rax
	movq	%rax, %rdi
	call	_ZNSt3mapIciSt4lessIcESaISt4pairIKciEEEC1Ev
	movq	-2240(%rbp), %rdx
	movq	-2232(%rbp), %rax
	movq	%rdx, %rsi
	movq	%rax, %rdi
.LEHB71:
	call	_ZN5Board9gen_boardERNSt7__cxx1112basic_stringIcSt11char_traitsIcESaIcEEE
.LEHE71:
	jmp	.L191
.L184:
	endbr64
	movq	%rax, %rbx
	leaq	-2145(%rbp), %rax
	movq	%rax, %rdi
	call	_ZNSaINSt7__cxx1112basic_stringIcSt11char_traitsIcESaIcEEEED1Ev
	movq	%rbx, %r12
	leaq	-2144(%rbp), %rbx
	addq	$2080, %rbx
.L41:
	leaq	-2144(%rbp), %rax
	cmpq	%rax, %rbx
	je	.L40
	subq	$32, %rbx
	movq	%rbx, %rdi
	call	_ZNSt7__cxx1112basic_stringIcSt11char_traitsIcESaIcEED1Ev@PLT
	jmp	.L41
.L40:
	movq	%r12, %rbx
	jmp	.L42
.L183:
	endbr64
	movq	%rax, %rbx
.L42:
	leaq	-2146(%rbp), %rax
	movq	%rax, %rdi
	call	_ZNSaIcED1Ev@PLT
	jmp	.L43
.L182:
	endbr64
	movq	%rax, %rbx
.L43:
	leaq	-2147(%rbp), %rax
	movq	%rax, %rdi
	call	_ZNSaIcED1Ev@PLT
	jmp	.L44
.L181:
	endbr64
	movq	%rax, %rbx
.L44:
	leaq	-2148(%rbp), %rax
	movq	%rax, %rdi
	call	_ZNSaIcED1Ev@PLT
	jmp	.L45
.L180:
	endbr64
	movq	%rax, %rbx
.L45:
	leaq	-2149(%rbp), %rax
	movq	%rax, %rdi
	call	_ZNSaIcED1Ev@PLT
	jmp	.L46
.L179:
	endbr64
	movq	%rax, %rbx
.L46:
	leaq	-2150(%rbp), %rax
	movq	%rax, %rdi
	call	_ZNSaIcED1Ev@PLT
	jmp	.L47
.L178:
	endbr64
	movq	%rax, %rbx
.L47:
	leaq	-2151(%rbp), %rax
	movq	%rax, %rdi
	call	_ZNSaIcED1Ev@PLT
	jmp	.L48
.L177:
	endbr64
	movq	%rax, %rbx
.L48:
	leaq	-2152(%rbp), %rax
	movq	%rax, %rdi
	call	_ZNSaIcED1Ev@PLT
	jmp	.L49
.L176:
	endbr64
	movq	%rax, %rbx
.L49:
	leaq	-2153(%rbp), %rax
	movq	%rax, %rdi
	call	_ZNSaIcED1Ev@PLT
	jmp	.L50
.L175:
	endbr64
	movq	%rax, %rbx
.L50:
	leaq	-2154(%rbp), %rax
	movq	%rax, %rdi
	call	_ZNSaIcED1Ev@PLT
	jmp	.L51
.L174:
	endbr64
	movq	%rax, %rbx
.L51:
	leaq	-2155(%rbp), %rax
	movq	%rax, %rdi
	call	_ZNSaIcED1Ev@PLT
	jmp	.L52
.L173:
	endbr64
	movq	%rax, %rbx
.L52:
	leaq	-2156(%rbp), %rax
	movq	%rax, %rdi
	call	_ZNSaIcED1Ev@PLT
	jmp	.L53
.L172:
	endbr64
	movq	%rax, %rbx
.L53:
	leaq	-2157(%rbp), %rax
	movq	%rax, %rdi
	call	_ZNSaIcED1Ev@PLT
	jmp	.L54
.L171:
	endbr64
	movq	%rax, %rbx
.L54:
	leaq	-2158(%rbp), %rax
	movq	%rax, %rdi
	call	_ZNSaIcED1Ev@PLT
	jmp	.L55
.L170:
	endbr64
	movq	%rax, %rbx
.L55:
	leaq	-2159(%rbp), %rax
	movq	%rax, %rdi
	call	_ZNSaIcED1Ev@PLT
	jmp	.L56
.L169:
	endbr64
	movq	%rax, %rbx
.L56:
	leaq	-2160(%rbp), %rax
	movq	%rax, %rdi
	call	_ZNSaIcED1Ev@PLT
	jmp	.L57
.L168:
	endbr64
	movq	%rax, %rbx
.L57:
	leaq	-2161(%rbp), %rax
	movq	%rax, %rdi
	call	_ZNSaIcED1Ev@PLT
	jmp	.L58
.L167:
	endbr64
	movq	%rax, %rbx
.L58:
	leaq	-2162(%rbp), %rax
	movq	%rax, %rdi
	call	_ZNSaIcED1Ev@PLT
	jmp	.L59
.L166:
	endbr64
	movq	%rax, %rbx
.L59:
	leaq	-2163(%rbp), %rax
	movq	%rax, %rdi
	call	_ZNSaIcED1Ev@PLT
	jmp	.L60
.L165:
	endbr64
	movq	%rax, %rbx
.L60:
	leaq	-2164(%rbp), %rax
	movq	%rax, %rdi
	call	_ZNSaIcED1Ev@PLT
	jmp	.L61
.L164:
	endbr64
	movq	%rax, %rbx
.L61:
	leaq	-2165(%rbp), %rax
	movq	%rax, %rdi
	call	_ZNSaIcED1Ev@PLT
	jmp	.L62
.L163:
	endbr64
	movq	%rax, %rbx
.L62:
	leaq	-2166(%rbp), %rax
	movq	%rax, %rdi
	call	_ZNSaIcED1Ev@PLT
	jmp	.L63
.L162:
	endbr64
	movq	%rax, %rbx
.L63:
	leaq	-2167(%rbp), %rax
	movq	%rax, %rdi
	call	_ZNSaIcED1Ev@PLT
	jmp	.L64
.L161:
	endbr64
	movq	%rax, %rbx
.L64:
	leaq	-2168(%rbp), %rax
	movq	%rax, %rdi
	call	_ZNSaIcED1Ev@PLT
	jmp	.L65
.L160:
	endbr64
	movq	%rax, %rbx
.L65:
	leaq	-2169(%rbp), %rax
	movq	%rax, %rdi
	call	_ZNSaIcED1Ev@PLT
	jmp	.L66
.L159:
	endbr64
	movq	%rax, %rbx
.L66:
	leaq	-2170(%rbp), %rax
	movq	%rax, %rdi
	call	_ZNSaIcED1Ev@PLT
	jmp	.L67
.L158:
	endbr64
	movq	%rax, %rbx
.L67:
	leaq	-2171(%rbp), %rax
	movq	%rax, %rdi
	call	_ZNSaIcED1Ev@PLT
	jmp	.L68
.L157:
	endbr64
	movq	%rax, %rbx
.L68:
	leaq	-2172(%rbp), %rax
	movq	%rax, %rdi
	call	_ZNSaIcED1Ev@PLT
	jmp	.L69
.L156:
	endbr64
	movq	%rax, %rbx
.L69:
	leaq	-2173(%rbp), %rax
	movq	%rax, %rdi
	call	_ZNSaIcED1Ev@PLT
	jmp	.L70
.L155:
	endbr64
	movq	%rax, %rbx
.L70:
	leaq	-2174(%rbp), %rax
	movq	%rax, %rdi
	call	_ZNSaIcED1Ev@PLT
	jmp	.L71
.L154:
	endbr64
	movq	%rax, %rbx
.L71:
	leaq	-2175(%rbp), %rax
	movq	%rax, %rdi
	call	_ZNSaIcED1Ev@PLT
	jmp	.L72
.L153:
	endbr64
	movq	%rax, %rbx
.L72:
	leaq	-2176(%rbp), %rax
	movq	%rax, %rdi
	call	_ZNSaIcED1Ev@PLT
	jmp	.L73
.L152:
	endbr64
	movq	%rax, %rbx
.L73:
	leaq	-2177(%rbp), %rax
	movq	%rax, %rdi
	call	_ZNSaIcED1Ev@PLT
	jmp	.L74
.L151:
	endbr64
	movq	%rax, %rbx
.L74:
	leaq	-2178(%rbp), %rax
	movq	%rax, %rdi
	call	_ZNSaIcED1Ev@PLT
	jmp	.L75
.L150:
	endbr64
	movq	%rax, %rbx
.L75:
	leaq	-2179(%rbp), %rax
	movq	%rax, %rdi
	call	_ZNSaIcED1Ev@PLT
	jmp	.L76
.L149:
	endbr64
	movq	%rax, %rbx
.L76:
	leaq	-2180(%rbp), %rax
	movq	%rax, %rdi
	call	_ZNSaIcED1Ev@PLT
	jmp	.L77
.L148:
	endbr64
	movq	%rax, %rbx
.L77:
	leaq	-2181(%rbp), %rax
	movq	%rax, %rdi
	call	_ZNSaIcED1Ev@PLT
	jmp	.L78
.L147:
	endbr64
	movq	%rax, %rbx
.L78:
	leaq	-2182(%rbp), %rax
	movq	%rax, %rdi
	call	_ZNSaIcED1Ev@PLT
	jmp	.L79
.L146:
	endbr64
	movq	%rax, %rbx
.L79:
	leaq	-2183(%rbp), %rax
	movq	%rax, %rdi
	call	_ZNSaIcED1Ev@PLT
	jmp	.L80
.L145:
	endbr64
	movq	%rax, %rbx
.L80:
	leaq	-2184(%rbp), %rax
	movq	%rax, %rdi
	call	_ZNSaIcED1Ev@PLT
	jmp	.L81
.L144:
	endbr64
	movq	%rax, %rbx
.L81:
	leaq	-2185(%rbp), %rax
	movq	%rax, %rdi
	call	_ZNSaIcED1Ev@PLT
	jmp	.L82
.L143:
	endbr64
	movq	%rax, %rbx
.L82:
	leaq	-2186(%rbp), %rax
	movq	%rax, %rdi
	call	_ZNSaIcED1Ev@PLT
	jmp	.L83
.L142:
	endbr64
	movq	%rax, %rbx
.L83:
	leaq	-2187(%rbp), %rax
	movq	%rax, %rdi
	call	_ZNSaIcED1Ev@PLT
	jmp	.L84
.L141:
	endbr64
	movq	%rax, %rbx
.L84:
	leaq	-2188(%rbp), %rax
	movq	%rax, %rdi
	call	_ZNSaIcED1Ev@PLT
	jmp	.L85
.L140:
	endbr64
	movq	%rax, %rbx
.L85:
	leaq	-2189(%rbp), %rax
	movq	%rax, %rdi
	call	_ZNSaIcED1Ev@PLT
	jmp	.L86
.L139:
	endbr64
	movq	%rax, %rbx
.L86:
	leaq	-2190(%rbp), %rax
	movq	%rax, %rdi
	call	_ZNSaIcED1Ev@PLT
	jmp	.L87
.L138:
	endbr64
	movq	%rax, %rbx
.L87:
	leaq	-2191(%rbp), %rax
	movq	%rax, %rdi
	call	_ZNSaIcED1Ev@PLT
	jmp	.L88
.L137:
	endbr64
	movq	%rax, %rbx
.L88:
	leaq	-2192(%rbp), %rax
	movq	%rax, %rdi
	call	_ZNSaIcED1Ev@PLT
	jmp	.L89
.L136:
	endbr64
	movq	%rax, %rbx
.L89:
	leaq	-2193(%rbp), %rax
	movq	%rax, %rdi
	call	_ZNSaIcED1Ev@PLT
	jmp	.L90
.L135:
	endbr64
	movq	%rax, %rbx
.L90:
	leaq	-2194(%rbp), %rax
	movq	%rax, %rdi
	call	_ZNSaIcED1Ev@PLT
	jmp	.L91
.L134:
	endbr64
	movq	%rax, %rbx
.L91:
	leaq	-2195(%rbp), %rax
	movq	%rax, %rdi
	call	_ZNSaIcED1Ev@PLT
	jmp	.L92
.L133:
	endbr64
	movq	%rax, %rbx
.L92:
	leaq	-2196(%rbp), %rax
	movq	%rax, %rdi
	call	_ZNSaIcED1Ev@PLT
	jmp	.L93
.L132:
	endbr64
	movq	%rax, %rbx
.L93:
	leaq	-2197(%rbp), %rax
	movq	%rax, %rdi
	call	_ZNSaIcED1Ev@PLT
	jmp	.L94
.L131:
	endbr64
	movq	%rax, %rbx
.L94:
	leaq	-2198(%rbp), %rax
	movq	%rax, %rdi
	call	_ZNSaIcED1Ev@PLT
	jmp	.L95
.L130:
	endbr64
	movq	%rax, %rbx
.L95:
	leaq	-2199(%rbp), %rax
	movq	%rax, %rdi
	call	_ZNSaIcED1Ev@PLT
	jmp	.L96
.L129:
	endbr64
	movq	%rax, %rbx
.L96:
	leaq	-2200(%rbp), %rax
	movq	%rax, %rdi
	call	_ZNSaIcED1Ev@PLT
	jmp	.L97
.L128:
	endbr64
	movq	%rax, %rbx
.L97:
	leaq	-2201(%rbp), %rax
	movq	%rax, %rdi
	call	_ZNSaIcED1Ev@PLT
	jmp	.L98
.L127:
	endbr64
	movq	%rax, %rbx
.L98:
	leaq	-2202(%rbp), %rax
	movq	%rax, %rdi
	call	_ZNSaIcED1Ev@PLT
	jmp	.L99
.L126:
	endbr64
	movq	%rax, %rbx
.L99:
	leaq	-2203(%rbp), %rax
	movq	%rax, %rdi
	call	_ZNSaIcED1Ev@PLT
	jmp	.L100
.L125:
	endbr64
	movq	%rax, %rbx
.L100:
	leaq	-2204(%rbp), %rax
	movq	%rax, %rdi
	call	_ZNSaIcED1Ev@PLT
	jmp	.L101
.L124:
	endbr64
	movq	%rax, %rbx
.L101:
	leaq	-2205(%rbp), %rax
	movq	%rax, %rdi
	call	_ZNSaIcED1Ev@PLT
	jmp	.L102
.L123:
	endbr64
	movq	%rax, %rbx
.L102:
	leaq	-2206(%rbp), %rax
	movq	%rax, %rdi
	call	_ZNSaIcED1Ev@PLT
	jmp	.L103
.L122:
	endbr64
	movq	%rax, %rbx
.L103:
	leaq	-2207(%rbp), %rax
	movq	%rax, %rdi
	call	_ZNSaIcED1Ev@PLT
	jmp	.L104
.L121:
	endbr64
	movq	%rax, %rbx
.L104:
	leaq	-2208(%rbp), %rax
	movq	%rax, %rdi
	call	_ZNSaIcED1Ev@PLT
	jmp	.L105
.L120:
	endbr64
	movq	%rax, %rbx
.L105:
	leaq	-2209(%rbp), %rax
	movq	%rax, %rdi
	call	_ZNSaIcED1Ev@PLT
	jmp	.L106
.L119:
	endbr64
	movq	%rax, %rbx
.L106:
	leaq	-2210(%rbp), %rax
	movq	%rax, %rdi
	call	_ZNSaIcED1Ev@PLT
	movq	%rbx, %rax
	movq	%rax, %rdi
.LEHB72:
	call	_Unwind_Resume@PLT
.L185:
	endbr64
	movq	%rax, %rbx
	leaq	-2145(%rbp), %rax
	movq	%rax, %rdi
	call	_ZNSaIcED1Ev@PLT
	jmp	.L108
.L186:
	endbr64
	movq	%rax, %rbx
	leaq	-2145(%rbp), %rax
	movq	%rax, %rdi
	call	_ZNSaIcED1Ev@PLT
	jmp	.L110
.L187:
	endbr64
	movq	%rax, %rbx
	leaq	-2145(%rbp), %rax
	movq	%rax, %rdi
	call	_ZNSaIcED1Ev@PLT
	jmp	.L112
.L188:
	endbr64
	movq	%rax, %rbx
	leaq	-2145(%rbp), %rax
	movq	%rax, %rdi
	call	_ZNSaIyED1Ev
	jmp	.L114
.L189:
	endbr64
	movq	%rax, %rbx
	leaq	-2145(%rbp), %rax
	movq	%rax, %rdi
	call	_ZNSaIyED1Ev
	jmp	.L116
.L190:
	endbr64
	movq	%rax, %rbx
	movq	-2232(%rbp), %rax
	addq	$2361984, %rax
	movq	%rax, %rdi
	call	_ZNSt3mapIciSt4lessIcESaISt4pairIKciEEED1Ev
	movq	-2232(%rbp), %rax
	addq	$2361936, %rax
	movq	%rax, %rdi
	call	_ZNSt3mapINSt7__cxx1112basic_stringIcSt11char_traitsIcESaIcEEEiSt4lessIS5_ESaISt4pairIKS5_iEEED1Ev
	movq	-2232(%rbp), %rax
	addq	$2361888, %rax
	movq	%rax, %rdi
	call	_ZNSt6vectorIySaIyEED1Ev
.L116:
	movq	-2232(%rbp), %rax
	addq	$2361864, %rax
	movq	%rax, %rdi
	call	_ZNSt6vectorIySaIyEED1Ev
.L114:
	movq	-2232(%rbp), %rax
	addq	$240, %rax
	movq	%rax, %rdi
	call	_ZNSt6vectorIySaIyEED1Ev
	movq	-2232(%rbp), %rax
	addq	$216, %rax
	movq	%rax, %rdi
	call	_ZNSt6vectorIySaIyEED1Ev
	movq	-2232(%rbp), %rax
	addq	$120, %rax
	movq	%rax, %rdi
	call	_ZNSt3mapIcySt4lessIcESaISt4pairIKcyEEED1Ev
	movq	-2232(%rbp), %rax
	addq	$88, %rax
	movq	%rax, %rdi
	call	_ZNSt7__cxx1112basic_stringIcSt11char_traitsIcESaIcEED1Ev@PLT
.L112:
	movq	-2232(%rbp), %rax
	addq	$56, %rax
	movq	%rax, %rdi
	call	_ZNSt7__cxx1112basic_stringIcSt11char_traitsIcESaIcEED1Ev@PLT
.L110:
	movq	-2232(%rbp), %rax
	addq	$24, %rax
	movq	%rax, %rdi
	call	_ZNSt7__cxx1112basic_stringIcSt11char_traitsIcESaIcEED1Ev@PLT
.L108:
	movq	-2232(%rbp), %rax
	movq	%rax, %rdi
	call	_ZNSt6vectorINSt7__cxx1112basic_stringIcSt11char_traitsIcESaIcEEESaIS5_EED1Ev
	movq	%rbx, %rax
	movq	%rax, %rdi
	call	_Unwind_Resume@PLT
.LEHE72:
.L191:
	movq	-56(%rbp), %rax
	subq	%fs:40, %rax
	je	.L118
	call	__stack_chk_fail@PLT
.L118:
	addq	$2216, %rsp
	popq	%rbx
	popq	%r12
	popq	%r13
	popq	%r14
	popq	%r15
	popq	%rbp
	.cfi_def_cfa 7, 8
	ret
	.cfi_endproc
.LFE9756:
	.globl	__gxx_personality_v0
	.section	.gcc_except_table,"a",@progbits
.LLSDA9756:
	.byte	0xff
	.byte	0xff
	.byte	0x1
	.uleb128 .LLSDACSE9756-.LLSDACSB9756
.LLSDACSB9756:
	.uleb128 .LEHB0-.LFB9756
	.uleb128 .LEHE0-.LEHB0
	.uleb128 .L119-.LFB9756
	.uleb128 0
	.uleb128 .LEHB1-.LFB9756
	.uleb128 .LEHE1-.LEHB1
	.uleb128 .L120-.LFB9756
	.uleb128 0
	.uleb128 .LEHB2-.LFB9756
	.uleb128 .LEHE2-.LEHB2
	.uleb128 .L121-.LFB9756
	.uleb128 0
	.uleb128 .LEHB3-.LFB9756
	.uleb128 .LEHE3-.LEHB3
	.uleb128 .L122-.LFB9756
	.uleb128 0
	.uleb128 .LEHB4-.LFB9756
	.uleb128 .LEHE4-.LEHB4
	.uleb128 .L123-.LFB9756
	.uleb128 0
	.uleb128 .LEHB5-.LFB9756
	.uleb128 .LEHE5-.LEHB5
	.uleb128 .L124-.LFB9756
	.uleb128 0
	.uleb128 .LEHB6-.LFB9756
	.uleb128 .LEHE6-.LEHB6
	.uleb128 .L125-.LFB9756
	.uleb128 0
	.uleb128 .LEHB7-.LFB9756
	.uleb128 .LEHE7-.LEHB7
	.uleb128 .L126-.LFB9756
	.uleb128 0
	.uleb128 .LEHB8-.LFB9756
	.uleb128 .LEHE8-.LEHB8
	.uleb128 .L127-.LFB9756
	.uleb128 0
	.uleb128 .LEHB9-.LFB9756
	.uleb128 .LEHE9-.LEHB9
	.uleb128 .L128-.LFB9756
	.uleb128 0
	.uleb128 .LEHB10-.LFB9756
	.uleb128 .LEHE10-.LEHB10
	.uleb128 .L129-.LFB9756
	.uleb128 0
	.uleb128 .LEHB11-.LFB9756
	.uleb128 .LEHE11-.LEHB11
	.uleb128 .L130-.LFB9756
	.uleb128 0
	.uleb128 .LEHB12-.LFB9756
	.uleb128 .LEHE12-.LEHB12
	.uleb128 .L131-.LFB9756
	.uleb128 0
	.uleb128 .LEHB13-.LFB9756
	.uleb128 .LEHE13-.LEHB13
	.uleb128 .L132-.LFB9756
	.uleb128 0
	.uleb128 .LEHB14-.LFB9756
	.uleb128 .LEHE14-.LEHB14
	.uleb128 .L133-.LFB9756
	.uleb128 0
	.uleb128 .LEHB15-.LFB9756
	.uleb128 .LEHE15-.LEHB15
	.uleb128 .L134-.LFB9756
	.uleb128 0
	.uleb128 .LEHB16-.LFB9756
	.uleb128 .LEHE16-.LEHB16
	.uleb128 .L135-.LFB9756
	.uleb128 0
	.uleb128 .LEHB17-.LFB9756
	.uleb128 .LEHE17-.LEHB17
	.uleb128 .L136-.LFB9756
	.uleb128 0
	.uleb128 .LEHB18-.LFB9756
	.uleb128 .LEHE18-.LEHB18
	.uleb128 .L137-.LFB9756
	.uleb128 0
	.uleb128 .LEHB19-.LFB9756
	.uleb128 .LEHE19-.LEHB19
	.uleb128 .L138-.LFB9756
	.uleb128 0
	.uleb128 .LEHB20-.LFB9756
	.uleb128 .LEHE20-.LEHB20
	.uleb128 .L139-.LFB9756
	.uleb128 0
	.uleb128 .LEHB21-.LFB9756
	.uleb128 .LEHE21-.LEHB21
	.uleb128 .L140-.LFB9756
	.uleb128 0
	.uleb128 .LEHB22-.LFB9756
	.uleb128 .LEHE22-.LEHB22
	.uleb128 .L141-.LFB9756
	.uleb128 0
	.uleb128 .LEHB23-.LFB9756
	.uleb128 .LEHE23-.LEHB23
	.uleb128 .L142-.LFB9756
	.uleb128 0
	.uleb128 .LEHB24-.LFB9756
	.uleb128 .LEHE24-.LEHB24
	.uleb128 .L143-.LFB9756
	.uleb128 0
	.uleb128 .LEHB25-.LFB9756
	.uleb128 .LEHE25-.LEHB25
	.uleb128 .L144-.LFB9756
	.uleb128 0
	.uleb128 .LEHB26-.LFB9756
	.uleb128 .LEHE26-.LEHB26
	.uleb128 .L145-.LFB9756
	.uleb128 0
	.uleb128 .LEHB27-.LFB9756
	.uleb128 .LEHE27-.LEHB27
	.uleb128 .L146-.LFB9756
	.uleb128 0
	.uleb128 .LEHB28-.LFB9756
	.uleb128 .LEHE28-.LEHB28
	.uleb128 .L147-.LFB9756
	.uleb128 0
	.uleb128 .LEHB29-.LFB9756
	.uleb128 .LEHE29-.LEHB29
	.uleb128 .L148-.LFB9756
	.uleb128 0
	.uleb128 .LEHB30-.LFB9756
	.uleb128 .LEHE30-.LEHB30
	.uleb128 .L149-.LFB9756
	.uleb128 0
	.uleb128 .LEHB31-.LFB9756
	.uleb128 .LEHE31-.LEHB31
	.uleb128 .L150-.LFB9756
	.uleb128 0
	.uleb128 .LEHB32-.LFB9756
	.uleb128 .LEHE32-.LEHB32
	.uleb128 .L151-.LFB9756
	.uleb128 0
	.uleb128 .LEHB33-.LFB9756
	.uleb128 .LEHE33-.LEHB33
	.uleb128 .L152-.LFB9756
	.uleb128 0
	.uleb128 .LEHB34-.LFB9756
	.uleb128 .LEHE34-.LEHB34
	.uleb128 .L153-.LFB9756
	.uleb128 0
	.uleb128 .LEHB35-.LFB9756
	.uleb128 .LEHE35-.LEHB35
	.uleb128 .L154-.LFB9756
	.uleb128 0
	.uleb128 .LEHB36-.LFB9756
	.uleb128 .LEHE36-.LEHB36
	.uleb128 .L155-.LFB9756
	.uleb128 0
	.uleb128 .LEHB37-.LFB9756
	.uleb128 .LEHE37-.LEHB37
	.uleb128 .L156-.LFB9756
	.uleb128 0
	.uleb128 .LEHB38-.LFB9756
	.uleb128 .LEHE38-.LEHB38
	.uleb128 .L157-.LFB9756
	.uleb128 0
	.uleb128 .LEHB39-.LFB9756
	.uleb128 .LEHE39-.LEHB39
	.uleb128 .L158-.LFB9756
	.uleb128 0
	.uleb128 .LEHB40-.LFB9756
	.uleb128 .LEHE40-.LEHB40
	.uleb128 .L159-.LFB9756
	.uleb128 0
	.uleb128 .LEHB41-.LFB9756
	.uleb128 .LEHE41-.LEHB41
	.uleb128 .L160-.LFB9756
	.uleb128 0
	.uleb128 .LEHB42-.LFB9756
	.uleb128 .LEHE42-.LEHB42
	.uleb128 .L161-.LFB9756
	.uleb128 0
	.uleb128 .LEHB43-.LFB9756
	.uleb128 .LEHE43-.LEHB43
	.uleb128 .L162-.LFB9756
	.uleb128 0
	.uleb128 .LEHB44-.LFB9756
	.uleb128 .LEHE44-.LEHB44
	.uleb128 .L163-.LFB9756
	.uleb128 0
	.uleb128 .LEHB45-.LFB9756
	.uleb128 .LEHE45-.LEHB45
	.uleb128 .L164-.LFB9756
	.uleb128 0
	.uleb128 .LEHB46-.LFB9756
	.uleb128 .LEHE46-.LEHB46
	.uleb128 .L165-.LFB9756
	.uleb128 0
	.uleb128 .LEHB47-.LFB9756
	.uleb128 .LEHE47-.LEHB47
	.uleb128 .L166-.LFB9756
	.uleb128 0
	.uleb128 .LEHB48-.LFB9756
	.uleb128 .LEHE48-.LEHB48
	.uleb128 .L167-.LFB9756
	.uleb128 0
	.uleb128 .LEHB49-.LFB9756
	.uleb128 .LEHE49-.LEHB49
	.uleb128 .L168-.LFB9756
	.uleb128 0
	.uleb128 .LEHB50-.LFB9756
	.uleb128 .LEHE50-.LEHB50
	.uleb128 .L169-.LFB9756
	.uleb128 0
	.uleb128 .LEHB51-.LFB9756
	.uleb128 .LEHE51-.LEHB51
	.uleb128 .L170-.LFB9756
	.uleb128 0
	.uleb128 .LEHB52-.LFB9756
	.uleb128 .LEHE52-.LEHB52
	.uleb128 .L171-.LFB9756
	.uleb128 0
	.uleb128 .LEHB53-.LFB9756
	.uleb128 .LEHE53-.LEHB53
	.uleb128 .L172-.LFB9756
	.uleb128 0
	.uleb128 .LEHB54-.LFB9756
	.uleb128 .LEHE54-.LEHB54
	.uleb128 .L173-.LFB9756
	.uleb128 0
	.uleb128 .LEHB55-.LFB9756
	.uleb128 .LEHE55-.LEHB55
	.uleb128 .L174-.LFB9756
	.uleb128 0
	.uleb128 .LEHB56-.LFB9756
	.uleb128 .LEHE56-.LEHB56
	.uleb128 .L175-.LFB9756
	.uleb128 0
	.uleb128 .LEHB57-.LFB9756
	.uleb128 .LEHE57-.LEHB57
	.uleb128 .L176-.LFB9756
	.uleb128 0
	.uleb128 .LEHB58-.LFB9756
	.uleb128 .LEHE58-.LEHB58
	.uleb128 .L177-.LFB9756
	.uleb128 0
	.uleb128 .LEHB59-.LFB9756
	.uleb128 .LEHE59-.LEHB59
	.uleb128 .L178-.LFB9756
	.uleb128 0
	.uleb128 .LEHB60-.LFB9756
	.uleb128 .LEHE60-.LEHB60
	.uleb128 .L179-.LFB9756
	.uleb128 0
	.uleb128 .LEHB61-.LFB9756
	.uleb128 .LEHE61-.LEHB61
	.uleb128 .L180-.LFB9756
	.uleb128 0
	.uleb128 .LEHB62-.LFB9756
	.uleb128 .LEHE62-.LEHB62
	.uleb128 .L181-.LFB9756
	.uleb128 0
	.uleb128 .LEHB63-.LFB9756
	.uleb128 .LEHE63-.LEHB63
	.uleb128 .L182-.LFB9756
	.uleb128 0
	.uleb128 .LEHB64-.LFB9756
	.uleb128 .LEHE64-.LEHB64
	.uleb128 .L183-.LFB9756
	.uleb128 0
	.uleb128 .LEHB65-.LFB9756
	.uleb128 .LEHE65-.LEHB65
	.uleb128 .L184-.LFB9756
	.uleb128 0
	.uleb128 .LEHB66-.LFB9756
	.uleb128 .LEHE66-.LEHB66
	.uleb128 .L185-.LFB9756
	.uleb128 0
	.uleb128 .LEHB67-.LFB9756
	.uleb128 .LEHE67-.LEHB67
	.uleb128 .L186-.LFB9756
	.uleb128 0
	.uleb128 .LEHB68-.LFB9756
	.uleb128 .LEHE68-.LEHB68
	.uleb128 .L187-.LFB9756
	.uleb128 0
	.uleb128 .LEHB69-.LFB9756
	.uleb128 .LEHE69-.LEHB69
	.uleb128 .L188-.LFB9756
	.uleb128 0
	.uleb128 .LEHB70-.LFB9756
	.uleb128 .LEHE70-.LEHB70
	.uleb128 .L189-.LFB9756
	.uleb128 0
	.uleb128 .LEHB71-.LFB9756
	.uleb128 .LEHE71-.LEHB71
	.uleb128 .L190-.LFB9756
	.uleb128 0
	.uleb128 .LEHB72-.LFB9756
	.uleb128 .LEHE72-.LEHB72
	.uleb128 0
	.uleb128 0
.LLSDACSE9756:
	.text
	.size	_ZN5BoardC2ENSt7__cxx1112basic_stringIcSt11char_traitsIcESaIcEEE, .-_ZN5BoardC2ENSt7__cxx1112basic_stringIcSt11char_traitsIcESaIcEEE
	.globl	_ZN5BoardC1ENSt7__cxx1112basic_stringIcSt11char_traitsIcESaIcEEE
	.set	_ZN5BoardC1ENSt7__cxx1112basic_stringIcSt11char_traitsIcESaIcEEE,_ZN5BoardC2ENSt7__cxx1112basic_stringIcSt11char_traitsIcESaIcEEE
	.section	.text._ZN5Board12update_boardEv,"axG",@progbits,_ZN5Board12update_boardEv,comdat
	.align 2
	.weak	_ZN5Board12update_boardEv
	.type	_ZN5Board12update_boardEv, @function
_ZN5Board12update_boardEv:
.LFB9758:
	.cfi_startproc
	endbr64
	pushq	%rbp
	.cfi_def_cfa_offset 16
	.cfi_offset 6, -16
	movq	%rsp, %rbp
	.cfi_def_cfa_register 6
	pushq	%rbx
	subq	$40, %rsp
	.cfi_offset 3, -24
	movq	%rdi, -40(%rbp)
	movq	%fs:40, %rax
	movq	%rax, -24(%rbp)
	xorl	%eax, %eax
	movq	-40(%rbp), %rax
	leaq	120(%rax), %rdx
	movb	$75, -30(%rbp)
	leaq	-30(%rbp), %rax
	movq	%rax, %rsi
	movq	%rdx, %rdi
	call	_ZNSt3mapIcySt4lessIcESaISt4pairIKcyEEEixEOc
	movq	(%rax), %rbx
	movq	-40(%rbp), %rax
	leaq	120(%rax), %rdx
	movb	$81, -29(%rbp)
	leaq	-29(%rbp), %rax
	movq	%rax, %rsi
	movq	%rdx, %rdi
	call	_ZNSt3mapIcySt4lessIcESaISt4pairIKcyEEEixEOc
	movq	(%rax), %rax
	orq	%rax, %rbx
	movq	-40(%rbp), %rax
	leaq	120(%rax), %rdx
	movb	$82, -28(%rbp)
	leaq	-28(%rbp), %rax
	movq	%rax, %rsi
	movq	%rdx, %rdi
	call	_ZNSt3mapIcySt4lessIcESaISt4pairIKcyEEEixEOc
	movq	(%rax), %rax
	orq	%rax, %rbx
	movq	-40(%rbp), %rax
	leaq	120(%rax), %rdx
	movb	$78, -27(%rbp)
	leaq	-27(%rbp), %rax
	movq	%rax, %rsi
	movq	%rdx, %rdi
	call	_ZNSt3mapIcySt4lessIcESaISt4pairIKcyEEEixEOc
	movq	(%rax), %rax
	orq	%rax, %rbx
	movq	-40(%rbp), %rax
	leaq	120(%rax), %rdx
	movb	$66, -26(%rbp)
	leaq	-26(%rbp), %rax
	movq	%rax, %rsi
	movq	%rdx, %rdi
	call	_ZNSt3mapIcySt4lessIcESaISt4pairIKcyEEEixEOc
	movq	(%rax), %rax
	orq	%rax, %rbx
	movq	-40(%rbp), %rax
	leaq	120(%rax), %rdx
	movb	$80, -25(%rbp)
	leaq	-25(%rbp), %rax
	movq	%rax, %rsi
	movq	%rdx, %rdi
	call	_ZNSt3mapIcySt4lessIcESaISt4pairIKcyEEEixEOc
	movq	(%rax), %rax
	orq	%rax, %rbx
	movq	-40(%rbp), %rax
	leaq	120(%rax), %rdx
	movb	$48, -31(%rbp)
	leaq	-31(%rbp), %rax
	movq	%rax, %rsi
	movq	%rdx, %rdi
	call	_ZNSt3mapIcySt4lessIcESaISt4pairIKcyEEEixEOc
	movq	%rbx, (%rax)
	movq	-40(%rbp), %rax
	leaq	120(%rax), %rdx
	movb	$107, -30(%rbp)
	leaq	-30(%rbp), %rax
	movq	%rax, %rsi
	movq	%rdx, %rdi
	call	_ZNSt3mapIcySt4lessIcESaISt4pairIKcyEEEixEOc
	movq	(%rax), %rbx
	movq	-40(%rbp), %rax
	leaq	120(%rax), %rdx
	movb	$113, -29(%rbp)
	leaq	-29(%rbp), %rax
	movq	%rax, %rsi
	movq	%rdx, %rdi
	call	_ZNSt3mapIcySt4lessIcESaISt4pairIKcyEEEixEOc
	movq	(%rax), %rax
	orq	%rax, %rbx
	movq	-40(%rbp), %rax
	leaq	120(%rax), %rdx
	movb	$114, -28(%rbp)
	leaq	-28(%rbp), %rax
	movq	%rax, %rsi
	movq	%rdx, %rdi
	call	_ZNSt3mapIcySt4lessIcESaISt4pairIKcyEEEixEOc
	movq	(%rax), %rax
	orq	%rax, %rbx
	movq	-40(%rbp), %rax
	leaq	120(%rax), %rdx
	movb	$110, -27(%rbp)
	leaq	-27(%rbp), %rax
	movq	%rax, %rsi
	movq	%rdx, %rdi
	call	_ZNSt3mapIcySt4lessIcESaISt4pairIKcyEEEixEOc
	movq	(%rax), %rax
	orq	%rax, %rbx
	movq	-40(%rbp), %rax
	leaq	120(%rax), %rdx
	movb	$98, -26(%rbp)
	leaq	-26(%rbp), %rax
	movq	%rax, %rsi
	movq	%rdx, %rdi
	call	_ZNSt3mapIcySt4lessIcESaISt4pairIKcyEEEixEOc
	movq	(%rax), %rax
	orq	%rax, %rbx
	movq	-40(%rbp), %rax
	leaq	120(%rax), %rdx
	movb	$112, -25(%rbp)
	leaq	-25(%rbp), %rax
	movq	%rax, %rsi
	movq	%rdx, %rdi
	call	_ZNSt3mapIcySt4lessIcESaISt4pairIKcyEEEixEOc
	movq	(%rax), %rax
	orq	%rax, %rbx
	movq	-40(%rbp), %rax
	leaq	120(%rax), %rdx
	movb	$49, -31(%rbp)
	leaq	-31(%rbp), %rax
	movq	%rax, %rsi
	movq	%rdx, %rdi
	call	_ZNSt3mapIcySt4lessIcESaISt4pairIKcyEEEixEOc
	movq	%rbx, (%rax)
	movq	-40(%rbp), %rax
	leaq	120(%rax), %rdx
	movb	$49, -26(%rbp)
	leaq	-26(%rbp), %rax
	movq	%rax, %rsi
	movq	%rdx, %rdi
	call	_ZNSt3mapIcySt4lessIcESaISt4pairIKcyEEEixEOc
	movq	(%rax), %rbx
	movq	-40(%rbp), %rax
	leaq	120(%rax), %rdx
	movb	$48, -25(%rbp)
	leaq	-25(%rbp), %rax
	movq	%rax, %rsi
	movq	%rdx, %rdi
	call	_ZNSt3mapIcySt4lessIcESaISt4pairIKcyEEEixEOc
	movq	(%rax), %rax
	orq	%rax, %rbx
	movq	-40(%rbp), %rax
	leaq	120(%rax), %rdx
	movb	$65, -27(%rbp)
	leaq	-27(%rbp), %rax
	movq	%rax, %rsi
	movq	%rdx, %rdi
	call	_ZNSt3mapIcySt4lessIcESaISt4pairIKcyEEEixEOc
	movq	%rbx, (%rax)
	movq	-40(%rbp), %rax
	leaq	120(%rax), %rdx
	movb	$65, -25(%rbp)
	leaq	-25(%rbp), %rax
	movq	%rax, %rsi
	movq	%rdx, %rdi
	call	_ZNSt3mapIcySt4lessIcESaISt4pairIKcyEEEixEOc
	movq	(%rax), %rax
	notq	%rax
	movq	%rax, %rbx
	movq	-40(%rbp), %rax
	leaq	120(%rax), %rdx
	movb	$69, -26(%rbp)
	leaq	-26(%rbp), %rax
	movq	%rax, %rsi
	movq	%rdx, %rdi
	call	_ZNSt3mapIcySt4lessIcESaISt4pairIKcyEEEixEOc
	movq	%rbx, (%rax)
	nop
	movq	-24(%rbp), %rax
	subq	%fs:40, %rax
	je	.L193
	call	__stack_chk_fail@PLT
.L193:
	movq	-8(%rbp), %rbx
	leave
	.cfi_def_cfa 7, 8
	ret
	.cfi_endproc
.LFE9758:
	.size	_ZN5Board12update_boardEv, .-_ZN5Board12update_boardEv
	.section	.rodata
.LC68:
	.string	""
	.align 8
.LC69:
	.string	"rnbqkbnr/pppppppp/8/8/8/8/PPPPPPPP/RNBQKBNR w KQkq - 0 1"
.LC70:
	.string	"12345678"
.LC71:
	.string	"-"
.LC72:
	.string	"w"
	.text
	.align 2
	.globl	_ZN5Board9gen_boardERNSt7__cxx1112basic_stringIcSt11char_traitsIcESaIcEEE
	.type	_ZN5Board9gen_boardERNSt7__cxx1112basic_stringIcSt11char_traitsIcESaIcEEE, @function
_ZN5Board9gen_boardERNSt7__cxx1112basic_stringIcSt11char_traitsIcESaIcEEE:
.LFB9759:
	.cfi_startproc
	.cfi_personality 0x9b,DW.ref.__gxx_personality_v0
	.cfi_lsda 0x1b,.LLSDA9759
	endbr64
	pushq	%rbp
	.cfi_def_cfa_offset 16
	.cfi_offset 6, -16
	movq	%rsp, %rbp
	.cfi_def_cfa_register 6
	pushq	%rbx
	subq	$248, %rsp
	.cfi_offset 3, -24
	movq	%rdi, -248(%rbp)
	movq	%rsi, -256(%rbp)
	movq	%fs:40, %rax
	movq	%rax, -24(%rbp)
	xorl	%eax, %eax
	movq	-256(%rbp), %rax
	leaq	.LC68(%rip), %rdx
	movq	%rdx, %rsi
	movq	%rax, %rdi
	call	_ZSteqIcSt11char_traitsIcESaIcEEbRKNSt7__cxx1112basic_stringIT_T0_T1_EEPKS5_
	testb	%al, %al
	je	.L195
	movq	-256(%rbp), %rax
	leaq	.LC69(%rip), %rdx
	movq	%rdx, %rsi
	movq	%rax, %rdi
.LEHB73:
	call	_ZNSt7__cxx1112basic_stringIcSt11char_traitsIcESaIcEEaSEPKc@PLT
.LEHE73:
.L195:
	leaq	-225(%rbp), %rax
	movq	%rax, %rdi
	call	_ZNSaIcEC1Ev@PLT
	leaq	-225(%rbp), %rdx
	leaq	-192(%rbp), %rax
	leaq	.LC70(%rip), %rcx
	movq	%rcx, %rsi
	movq	%rax, %rdi
.LEHB74:
	call	_ZNSt7__cxx1112basic_stringIcSt11char_traitsIcESaIcEEC1IS3_EEPKcRKS3_
.LEHE74:
	leaq	-225(%rbp), %rax
	movq	%rax, %rdi
	call	_ZNSaIcED1Ev@PLT
	movl	$0, -224(%rbp)
	leaq	-160(%rbp), %rax
	movq	%rax, %rdi
	call	_ZNSt7__cxx1112basic_stringIcSt11char_traitsIcESaIcEEC1Ev@PLT
	leaq	-128(%rbp), %rax
	movq	%rax, %rdi
	call	_ZNSt7__cxx1112basic_stringIcSt11char_traitsIcESaIcEEC1Ev@PLT
	leaq	-96(%rbp), %rax
	movq	%rax, %rdi
	call	_ZNSt7__cxx1112basic_stringIcSt11char_traitsIcESaIcEEC1Ev@PLT
	leaq	-64(%rbp), %rax
	movq	%rax, %rdi
	call	_ZNSt7__cxx1112basic_stringIcSt11char_traitsIcESaIcEEC1Ev@PLT
	jmp	.L196
.L197:
	movl	-224(%rbp), %eax
	movslq	%eax, %rdx
	movq	-256(%rbp), %rax
	movq	%rdx, %rsi
	movq	%rax, %rdi
.LEHB75:
	call	_ZNSt7__cxx1112basic_stringIcSt11char_traitsIcESaIcEEixEm@PLT
	movzbl	(%rax), %eax
	movsbl	%al, %edx
	leaq	-160(%rbp), %rax
	movl	%edx, %esi
	movq	%rax, %rdi
	call	_ZNSt7__cxx1112basic_stringIcSt11char_traitsIcESaIcEEpLEc@PLT
	addl	$1, -224(%rbp)
.L196:
	movl	-224(%rbp), %eax
	movslq	%eax, %rdx
	movq	-256(%rbp), %rax
	movq	%rdx, %rsi
	movq	%rax, %rdi
	call	_ZNSt7__cxx1112basic_stringIcSt11char_traitsIcESaIcEEixEm@PLT
	movzbl	(%rax), %eax
	cmpb	$32, %al
	setne	%al
	testb	%al, %al
	jne	.L197
	addl	$1, -224(%rbp)
	movl	-224(%rbp), %eax
	movslq	%eax, %rdx
	movq	-256(%rbp), %rax
	movq	%rdx, %rsi
	movq	%rax, %rdi
	call	_ZNSt7__cxx1112basic_stringIcSt11char_traitsIcESaIcEEixEm@PLT
	movzbl	(%rax), %eax
	movsbl	%al, %edx
	leaq	-128(%rbp), %rax
	movl	%edx, %esi
	movq	%rax, %rdi
	call	_ZNSt7__cxx1112basic_stringIcSt11char_traitsIcESaIcEEpLEc@PLT
	addl	$2, -224(%rbp)
	jmp	.L198
.L199:
	movl	-224(%rbp), %eax
	movslq	%eax, %rdx
	movq	-256(%rbp), %rax
	movq	%rdx, %rsi
	movq	%rax, %rdi
	call	_ZNSt7__cxx1112basic_stringIcSt11char_traitsIcESaIcEEixEm@PLT
	movzbl	(%rax), %eax
	movsbl	%al, %edx
	leaq	-96(%rbp), %rax
	movl	%edx, %esi
	movq	%rax, %rdi
	call	_ZNSt7__cxx1112basic_stringIcSt11char_traitsIcESaIcEEpLEc@PLT
	addl	$1, -224(%rbp)
.L198:
	movl	-224(%rbp), %eax
	movslq	%eax, %rdx
	movq	-256(%rbp), %rax
	movq	%rdx, %rsi
	movq	%rax, %rdi
	call	_ZNSt7__cxx1112basic_stringIcSt11char_traitsIcESaIcEEixEm@PLT
	movzbl	(%rax), %eax
	cmpb	$32, %al
	setne	%al
	testb	%al, %al
	jne	.L199
	addl	$1, -224(%rbp)
	jmp	.L200
.L201:
	movl	-224(%rbp), %eax
	movslq	%eax, %rdx
	movq	-256(%rbp), %rax
	movq	%rdx, %rsi
	movq	%rax, %rdi
	call	_ZNSt7__cxx1112basic_stringIcSt11char_traitsIcESaIcEEixEm@PLT
	movzbl	(%rax), %eax
	movsbl	%al, %edx
	leaq	-64(%rbp), %rax
	movl	%edx, %esi
	movq	%rax, %rdi
	call	_ZNSt7__cxx1112basic_stringIcSt11char_traitsIcESaIcEEpLEc@PLT
	addl	$1, -224(%rbp)
.L200:
	movl	-224(%rbp), %eax
	movslq	%eax, %rdx
	movq	-256(%rbp), %rax
	movq	%rdx, %rsi
	movq	%rax, %rdi
	call	_ZNSt7__cxx1112basic_stringIcSt11char_traitsIcESaIcEEixEm@PLT
	movzbl	(%rax), %eax
	cmpb	$32, %al
	setne	%al
	testb	%al, %al
	jne	.L201
	movl	$0, -220(%rbp)
	jmp	.L202
.L203:
	movq	-248(%rbp), %rax
	leaq	120(%rax), %rbx
	movq	-248(%rbp), %rax
	leaq	24(%rax), %rdx
	movl	-220(%rbp), %eax
	cltq
	movq	%rax, %rsi
	movq	%rdx, %rdi
	call	_ZNSt7__cxx1112basic_stringIcSt11char_traitsIcESaIcEEixEm@PLT
	movq	%rax, %rsi
	movq	%rbx, %rdi
	call	_ZNSt3mapIcySt4lessIcESaISt4pairIKcyEEEixERS3_
	movq	$0, (%rax)
	addl	$1, -220(%rbp)
.L202:
	movl	-220(%rbp), %eax
	movslq	%eax, %rbx
	movq	-248(%rbp), %rax
	addq	$24, %rax
	movq	%rax, %rdi
	call	_ZNKSt7__cxx1112basic_stringIcSt11char_traitsIcESaIcEE6lengthEv@PLT
	cmpq	%rax, %rbx
	setb	%al
	testb	%al, %al
	jne	.L203
	movl	$0, -216(%rbp)
	movl	$0, -212(%rbp)
	movl	$0, -208(%rbp)
	jmp	.L204
.L206:
	addl	$1, -212(%rbp)
	subl	$1, -216(%rbp)
	nop
.L205:
	cmpl	$0, -216(%rbp)
	jne	.L206
	movl	-208(%rbp), %eax
	movslq	%eax, %rdx
	leaq	-160(%rbp), %rax
	movq	%rdx, %rsi
	movq	%rax, %rdi
	call	_ZNSt7__cxx1112basic_stringIcSt11char_traitsIcESaIcEEixEm@PLT
	movzbl	(%rax), %eax
	cmpb	$47, %al
	sete	%al
	testb	%al, %al
	jne	.L228
	movl	-208(%rbp), %eax
	movslq	%eax, %rdx
	leaq	-160(%rbp), %rax
	movq	%rdx, %rsi
	movq	%rax, %rdi
	call	_ZNSt7__cxx1112basic_stringIcSt11char_traitsIcESaIcEEixEm@PLT
	movzbl	(%rax), %eax
	movsbl	%al, %ecx
	leaq	-192(%rbp), %rax
	movl	$0, %edx
	movl	%ecx, %esi
	movq	%rax, %rdi
	call	_ZNKSt7__cxx1112basic_stringIcSt11char_traitsIcESaIcEE4findEcm@PLT
	cmpq	$-1, %rax
	setne	%al
	testb	%al, %al
	je	.L209
	movl	-208(%rbp), %eax
	movslq	%eax, %rdx
	leaq	-160(%rbp), %rax
	movq	%rdx, %rsi
	movq	%rax, %rdi
	call	_ZNSt7__cxx1112basic_stringIcSt11char_traitsIcESaIcEEixEm@PLT
	movzbl	(%rax), %eax
	movsbl	%al, %eax
	subl	$48, %eax
	movl	%eax, -216(%rbp)
	jmp	.L208
.L209:
	movq	-248(%rbp), %rax
	leaq	120(%rax), %rbx
	movl	-208(%rbp), %eax
	movslq	%eax, %rdx
	leaq	-160(%rbp), %rax
	movq	%rdx, %rsi
	movq	%rax, %rdi
	call	_ZNSt7__cxx1112basic_stringIcSt11char_traitsIcESaIcEEixEm@PLT
	movq	%rax, %rsi
	movq	%rbx, %rdi
	call	_ZNSt3mapIcySt4lessIcESaISt4pairIKcyEEEixERS3_
	movq	%rax, %rcx
	movl	-212(%rbp), %edx
	movq	-248(%rbp), %rax
	movq	%rcx, %rsi
	movq	%rax, %rdi
	call	_ZN5Board7set_bitERyi
	addl	$1, -212(%rbp)
	jmp	.L208
.L228:
	nop
.L208:
	addl	$1, -208(%rbp)
.L204:
	movl	-208(%rbp), %eax
	movslq	%eax, %rbx
	leaq	-160(%rbp), %rax
	movq	%rax, %rdi
	call	_ZNKSt7__cxx1112basic_stringIcSt11char_traitsIcESaIcEE6lengthEv@PLT
	cmpq	%rax, %rbx
	setb	%al
	testb	%al, %al
	jne	.L205
	movq	-248(%rbp), %rax
	movq	%rax, %rdi
	call	_ZN5Board12update_boardEv
	movq	-248(%rbp), %rax
	movq	%rax, %rdi
	call	_ZN5Board19get_leaping_attacksEv
	movq	-248(%rbp), %rax
	movq	%rax, %rdi
	call	_ZN5Board27populate_attack_mask_arraysEv
	leaq	-64(%rbp), %rax
	leaq	.LC71(%rip), %rdx
	movq	%rdx, %rsi
	movq	%rax, %rdi
	call	_ZStneIcSt11char_traitsIcESaIcEEbRKNSt7__cxx1112basic_stringIT_T0_T1_EEPKS5_
	testb	%al, %al
	je	.L211
	leaq	-64(%rbp), %rax
	movl	$0, %esi
	movq	%rax, %rdi
	call	_ZNSt7__cxx1112basic_stringIcSt11char_traitsIcESaIcEEixEm@PLT
	movzbl	(%rax), %eax
	movsbl	%al, %eax
	subl	$97, %eax
	movl	%eax, -200(%rbp)
	leaq	-64(%rbp), %rax
	movl	$1, %esi
	movq	%rax, %rdi
	call	_ZNSt7__cxx1112basic_stringIcSt11char_traitsIcESaIcEEixEm@PLT
	movzbl	(%rax), %eax
	movsbl	%al, %edx
	movl	$57, %eax
	subl	%edx, %eax
	movl	%eax, -196(%rbp)
	movl	-196(%rbp), %eax
	subl	$1, %eax
	leal	0(,%rax,8), %edx
	movl	-200(%rbp), %eax
	addl	%eax, %edx
	movq	-248(%rbp), %rax
	movl	%edx, 172(%rax)
.L211:
	leaq	-128(%rbp), %rax
	leaq	.LC72(%rip), %rdx
	movq	%rdx, %rsi
	movq	%rax, %rdi
	call	_ZSteqIcSt11char_traitsIcESaIcEEbRKNSt7__cxx1112basic_stringIT_T0_T1_EEPKS5_
	testb	%al, %al
	je	.L212
	movq	-248(%rbp), %rax
	movl	$0, 168(%rax)
	jmp	.L213
.L212:
	movq	-248(%rbp), %rax
	movl	$1, 168(%rax)
.L213:
	movl	$0, -204(%rbp)
	jmp	.L214
.L221:
	movl	-204(%rbp), %eax
	movslq	%eax, %rdx
	leaq	-96(%rbp), %rax
	movq	%rdx, %rsi
	movq	%rax, %rdi
	call	_ZNSt7__cxx1112basic_stringIcSt11char_traitsIcESaIcEEixEm@PLT
.LEHE75:
	movzbl	(%rax), %eax
	movsbl	%al, %eax
	cmpl	$113, %eax
	je	.L215
	cmpl	$113, %eax
	jg	.L229
	cmpl	$107, %eax
	je	.L217
	cmpl	$107, %eax
	jg	.L229
	cmpl	$75, %eax
	je	.L218
	cmpl	$81, %eax
	je	.L219
	jmp	.L229
.L218:
	movq	-248(%rbp), %rax
	movl	176(%rax), %eax
	leal	1(%rax), %edx
	movq	-248(%rbp), %rax
	movl	%edx, 176(%rax)
	jmp	.L220
.L219:
	movq	-248(%rbp), %rax
	movl	176(%rax), %eax
	leal	2(%rax), %edx
	movq	-248(%rbp), %rax
	movl	%edx, 176(%rax)
	jmp	.L220
.L217:
	movq	-248(%rbp), %rax
	movl	176(%rax), %eax
	leal	4(%rax), %edx
	movq	-248(%rbp), %rax
	movl	%edx, 176(%rax)
	jmp	.L220
.L215:
	movq	-248(%rbp), %rax
	movl	176(%rax), %eax
	leal	8(%rax), %edx
	movq	-248(%rbp), %rax
	movl	%edx, 176(%rax)
	jmp	.L220
.L229:
	nop
.L220:
	addl	$1, -204(%rbp)
.L214:
	movl	-204(%rbp), %eax
	movslq	%eax, %rbx
	leaq	-96(%rbp), %rax
	movq	%rax, %rdi
	call	_ZNKSt7__cxx1112basic_stringIcSt11char_traitsIcESaIcEE6lengthEv@PLT
	cmpq	%rax, %rbx
	setb	%al
	testb	%al, %al
	jne	.L221
	leaq	-64(%rbp), %rax
	movq	%rax, %rdi
	call	_ZNSt7__cxx1112basic_stringIcSt11char_traitsIcESaIcEED1Ev@PLT
	leaq	-96(%rbp), %rax
	movq	%rax, %rdi
	call	_ZNSt7__cxx1112basic_stringIcSt11char_traitsIcESaIcEED1Ev@PLT
	leaq	-128(%rbp), %rax
	movq	%rax, %rdi
	call	_ZNSt7__cxx1112basic_stringIcSt11char_traitsIcESaIcEED1Ev@PLT
	leaq	-160(%rbp), %rax
	movq	%rax, %rdi
	call	_ZNSt7__cxx1112basic_stringIcSt11char_traitsIcESaIcEED1Ev@PLT
	leaq	-192(%rbp), %rax
	movq	%rax, %rdi
	call	_ZNSt7__cxx1112basic_stringIcSt11char_traitsIcESaIcEED1Ev@PLT
	movq	-24(%rbp), %rax
	subq	%fs:40, %rax
	je	.L224
	jmp	.L227
.L225:
	endbr64
	movq	%rax, %rbx
	leaq	-225(%rbp), %rax
	movq	%rax, %rdi
	call	_ZNSaIcED1Ev@PLT
	movq	%rbx, %rax
	movq	%rax, %rdi
.LEHB76:
	call	_Unwind_Resume@PLT
.L226:
	endbr64
	movq	%rax, %rbx
	leaq	-64(%rbp), %rax
	movq	%rax, %rdi
	call	_ZNSt7__cxx1112basic_stringIcSt11char_traitsIcESaIcEED1Ev@PLT
	leaq	-96(%rbp), %rax
	movq	%rax, %rdi
	call	_ZNSt7__cxx1112basic_stringIcSt11char_traitsIcESaIcEED1Ev@PLT
	leaq	-128(%rbp), %rax
	movq	%rax, %rdi
	call	_ZNSt7__cxx1112basic_stringIcSt11char_traitsIcESaIcEED1Ev@PLT
	leaq	-160(%rbp), %rax
	movq	%rax, %rdi
	call	_ZNSt7__cxx1112basic_stringIcSt11char_traitsIcESaIcEED1Ev@PLT
	leaq	-192(%rbp), %rax
	movq	%rax, %rdi
	call	_ZNSt7__cxx1112basic_stringIcSt11char_traitsIcESaIcEED1Ev@PLT
	movq	%rbx, %rax
	movq	%rax, %rdi
	call	_Unwind_Resume@PLT
.LEHE76:
.L227:
	call	__stack_chk_fail@PLT
.L224:
	movq	-8(%rbp), %rbx
	leave
	.cfi_def_cfa 7, 8
	ret
	.cfi_endproc
.LFE9759:
	.section	.gcc_except_table
.LLSDA9759:
	.byte	0xff
	.byte	0xff
	.byte	0x1
	.uleb128 .LLSDACSE9759-.LLSDACSB9759
.LLSDACSB9759:
	.uleb128 .LEHB73-.LFB9759
	.uleb128 .LEHE73-.LEHB73
	.uleb128 0
	.uleb128 0
	.uleb128 .LEHB74-.LFB9759
	.uleb128 .LEHE74-.LEHB74
	.uleb128 .L225-.LFB9759
	.uleb128 0
	.uleb128 .LEHB75-.LFB9759
	.uleb128 .LEHE75-.LEHB75
	.uleb128 .L226-.LFB9759
	.uleb128 0
	.uleb128 .LEHB76-.LFB9759
	.uleb128 .LEHE76-.LEHB76
	.uleb128 0
	.uleb128 0
.LLSDACSE9759:
	.text
	.size	_ZN5Board9gen_boardERNSt7__cxx1112basic_stringIcSt11char_traitsIcESaIcEEE, .-_ZN5Board9gen_boardERNSt7__cxx1112basic_stringIcSt11char_traitsIcESaIcEEE
	.section	.rodata
.LC73:
	.string	"\n"
.LC74:
	.string	"\n\n\n"
	.text
	.align 2
	.globl	_ZN5Board11print_boardEy
	.type	_ZN5Board11print_boardEy, @function
_ZN5Board11print_boardEy:
.LFB9760:
	.cfi_startproc
	.cfi_personality 0x9b,DW.ref.__gxx_personality_v0
	.cfi_lsda 0x1b,.LLSDA9760
	endbr64
	pushq	%rbp
	.cfi_def_cfa_offset 16
	.cfi_offset 6, -16
	movq	%rsp, %rbp
	.cfi_def_cfa_register 6
	pushq	%rbx
	subq	$88, %rsp
	.cfi_offset 3, -24
	movq	%rdi, -88(%rbp)
	movq	%rsi, -96(%rbp)
	movq	%fs:40, %rax
	movq	%rax, -24(%rbp)
	xorl	%eax, %eax
	leaq	-65(%rbp), %rax
	movq	%rax, %rdi
	call	_ZNSaIcEC1Ev@PLT
	movb	$46, -66(%rbp)
	leaq	-65(%rbp), %rcx
	leaq	-66(%rbp), %rdx
	leaq	-48(%rbp), %rax
	movl	$64, %esi
	movq	%rax, %rdi
.LEHB77:
	call	_ZNSt6vectorIcSaIcEEC1EmRKcRKS0_
.LEHE77:
	leaq	-65(%rbp), %rax
	movq	%rax, %rdi
	call	_ZNSaIcED1Ev@PLT
	movl	$0, -64(%rbp)
	jmp	.L231
.L233:
	movl	-64(%rbp), %edx
	movq	-96(%rbp), %rcx
	movq	-88(%rbp), %rax
	movq	%rcx, %rsi
	movq	%rax, %rdi
	call	_ZN5Board7get_bitEyi
	movq	%rax, -56(%rbp)
	cmpq	$0, -56(%rbp)
	je	.L232
	movl	-64(%rbp), %eax
	movslq	%eax, %rdx
	leaq	-48(%rbp), %rax
	movq	%rdx, %rsi
	movq	%rax, %rdi
	call	_ZNSt6vectorIcSaIcEEixEm
	movb	$49, (%rax)
.L232:
	addl	$1, -64(%rbp)
.L231:
	cmpl	$63, -64(%rbp)
	jle	.L233
	movl	$0, -60(%rbp)
	jmp	.L234
.L236:
	movl	-60(%rbp), %eax
	andl	$7, %eax
	testl	%eax, %eax
	jne	.L235
	leaq	.LC73(%rip), %rax
	movq	%rax, %rsi
	leaq	_ZSt4cout(%rip), %rax
	movq	%rax, %rdi
.LEHB78:
	call	_ZStlsISt11char_traitsIcEERSt13basic_ostreamIcT_ES5_PKc@PLT
.L235:
	movl	$32, %esi
	leaq	_ZSt4cout(%rip), %rax
	movq	%rax, %rdi
	call	_ZStlsISt11char_traitsIcEERSt13basic_ostreamIcT_ES5_c@PLT
	movq	%rax, %rbx
	movl	-60(%rbp), %eax
	movslq	%eax, %rdx
	leaq	-48(%rbp), %rax
	movq	%rdx, %rsi
	movq	%rax, %rdi
	call	_ZNSt6vectorIcSaIcEEixEm
	movzbl	(%rax), %eax
	movsbl	%al, %eax
	movl	%eax, %esi
	movq	%rbx, %rdi
	call	_ZStlsISt11char_traitsIcEERSt13basic_ostreamIcT_ES5_c@PLT
	movl	$32, %esi
	movq	%rax, %rdi
	call	_ZStlsISt11char_traitsIcEERSt13basic_ostreamIcT_ES5_c@PLT
	addl	$1, -60(%rbp)
.L234:
	cmpl	$63, -60(%rbp)
	jle	.L236
	leaq	.LC74(%rip), %rax
	movq	%rax, %rsi
	leaq	_ZSt4cout(%rip), %rax
	movq	%rax, %rdi
	call	_ZStlsISt11char_traitsIcEERSt13basic_ostreamIcT_ES5_PKc@PLT
.LEHE78:
	leaq	-48(%rbp), %rax
	movq	%rax, %rdi
	call	_ZNSt6vectorIcSaIcEED1Ev
	movq	-24(%rbp), %rax
	subq	%fs:40, %rax
	je	.L239
	jmp	.L242
.L240:
	endbr64
	movq	%rax, %rbx
	leaq	-65(%rbp), %rax
	movq	%rax, %rdi
	call	_ZNSaIcED1Ev@PLT
	movq	%rbx, %rax
	movq	%rax, %rdi
.LEHB79:
	call	_Unwind_Resume@PLT
.L241:
	endbr64
	movq	%rax, %rbx
	leaq	-48(%rbp), %rax
	movq	%rax, %rdi
	call	_ZNSt6vectorIcSaIcEED1Ev
	movq	%rbx, %rax
	movq	%rax, %rdi
	call	_Unwind_Resume@PLT
.LEHE79:
.L242:
	call	__stack_chk_fail@PLT
.L239:
	movq	-8(%rbp), %rbx
	leave
	.cfi_def_cfa 7, 8
	ret
	.cfi_endproc
.LFE9760:
	.section	.gcc_except_table
.LLSDA9760:
	.byte	0xff
	.byte	0xff
	.byte	0x1
	.uleb128 .LLSDACSE9760-.LLSDACSB9760
.LLSDACSB9760:
	.uleb128 .LEHB77-.LFB9760
	.uleb128 .LEHE77-.LEHB77
	.uleb128 .L240-.LFB9760
	.uleb128 0
	.uleb128 .LEHB78-.LFB9760
	.uleb128 .LEHE78-.LEHB78
	.uleb128 .L241-.LFB9760
	.uleb128 0
	.uleb128 .LEHB79-.LFB9760
	.uleb128 .LEHE79-.LEHB79
	.uleb128 0
	.uleb128 0
.LLSDACSE9760:
	.text
	.size	_ZN5Board11print_boardEy, .-_ZN5Board11print_boardEy
	.section	.rodata
.LC75:
	.string	"en passant: "
.LC76:
	.string	"castling white: "
.LC77:
	.string	"castling black: "
.LC78:
	.string	"turn: "
	.text
	.align 2
	.globl	_ZN5Board16print_full_boardEv
	.type	_ZN5Board16print_full_boardEv, @function
_ZN5Board16print_full_boardEv:
.LFB9761:
	.cfi_startproc
	.cfi_personality 0x9b,DW.ref.__gxx_personality_v0
	.cfi_lsda 0x1b,.LLSDA9761
	endbr64
	pushq	%rbp
	.cfi_def_cfa_offset 16
	.cfi_offset 6, -16
	movq	%rsp, %rbp
	.cfi_def_cfa_register 6
	pushq	%rbx
	subq	$88, %rsp
	.cfi_offset 3, -24
	movq	%rdi, -88(%rbp)
	movq	%fs:40, %rax
	movq	%rax, -24(%rbp)
	xorl	%eax, %eax
	leaq	-77(%rbp), %rax
	movq	%rax, %rdi
	call	_ZNSaIcEC1Ev@PLT
	movb	$46, -78(%rbp)
	leaq	-77(%rbp), %rcx
	leaq	-78(%rbp), %rdx
	leaq	-48(%rbp), %rax
	movl	$64, %esi
	movq	%rax, %rdi
.LEHB80:
	call	_ZNSt6vectorIcSaIcEEC1EmRKcRKS0_
.LEHE80:
	leaq	-77(%rbp), %rax
	movq	%rax, %rdi
	call	_ZNSaIcED1Ev@PLT
	movl	$0, -76(%rbp)
	jmp	.L244
.L248:
	movq	-88(%rbp), %rax
	leaq	120(%rax), %rbx
	movq	-88(%rbp), %rax
	leaq	24(%rax), %rdx
	movl	-76(%rbp), %eax
	cltq
	movq	%rax, %rsi
	movq	%rdx, %rdi
.LEHB81:
	call	_ZNSt7__cxx1112basic_stringIcSt11char_traitsIcESaIcEEixEm@PLT
	movq	%rax, %rsi
	movq	%rbx, %rdi
	call	_ZNSt3mapIcySt4lessIcESaISt4pairIKcyEEEixERS3_
	movq	(%rax), %rax
	movq	%rax, -64(%rbp)
	movl	$0, -72(%rbp)
	jmp	.L245
.L247:
	movl	-72(%rbp), %edx
	movq	-64(%rbp), %rcx
	movq	-88(%rbp), %rax
	movq	%rcx, %rsi
	movq	%rax, %rdi
	call	_ZN5Board7get_bitEyi
	movq	%rax, -56(%rbp)
	cmpq	$0, -56(%rbp)
	je	.L246
	movq	-88(%rbp), %rax
	leaq	24(%rax), %rdx
	movl	-76(%rbp), %eax
	cltq
	movq	%rax, %rsi
	movq	%rdx, %rdi
	call	_ZNSt7__cxx1112basic_stringIcSt11char_traitsIcESaIcEEixEm@PLT
	movzbl	(%rax), %ebx
	movl	-72(%rbp), %eax
	movslq	%eax, %rdx
	leaq	-48(%rbp), %rax
	movq	%rdx, %rsi
	movq	%rax, %rdi
	call	_ZNSt6vectorIcSaIcEEixEm
	movb	%bl, (%rax)
.L246:
	addl	$1, -72(%rbp)
.L245:
	cmpl	$63, -72(%rbp)
	jle	.L247
	addl	$1, -76(%rbp)
.L244:
	movl	-76(%rbp), %eax
	movslq	%eax, %rbx
	movq	-88(%rbp), %rax
	addq	$24, %rax
	movq	%rax, %rdi
	call	_ZNKSt7__cxx1112basic_stringIcSt11char_traitsIcESaIcEE6lengthEv@PLT
	cmpq	%rax, %rbx
	setb	%al
	testb	%al, %al
	jne	.L248
	movl	$0, -68(%rbp)
	jmp	.L249
.L251:
	movl	-68(%rbp), %eax
	andl	$7, %eax
	testl	%eax, %eax
	jne	.L250
	leaq	.LC73(%rip), %rax
	movq	%rax, %rsi
	leaq	_ZSt4cout(%rip), %rax
	movq	%rax, %rdi
	call	_ZStlsISt11char_traitsIcEERSt13basic_ostreamIcT_ES5_PKc@PLT
.L250:
	movl	$32, %esi
	leaq	_ZSt4cout(%rip), %rax
	movq	%rax, %rdi
	call	_ZStlsISt11char_traitsIcEERSt13basic_ostreamIcT_ES5_c@PLT
	movq	%rax, %rbx
	movl	-68(%rbp), %eax
	movslq	%eax, %rdx
	leaq	-48(%rbp), %rax
	movq	%rdx, %rsi
	movq	%rax, %rdi
	call	_ZNSt6vectorIcSaIcEEixEm
	movzbl	(%rax), %eax
	movsbl	%al, %eax
	movl	%eax, %esi
	movq	%rbx, %rdi
	call	_ZStlsISt11char_traitsIcEERSt13basic_ostreamIcT_ES5_c@PLT
	movl	$32, %esi
	movq	%rax, %rdi
	call	_ZStlsISt11char_traitsIcEERSt13basic_ostreamIcT_ES5_c@PLT
	addl	$1, -68(%rbp)
.L249:
	cmpl	$63, -68(%rbp)
	jle	.L251
	leaq	.LC73(%rip), %rax
	movq	%rax, %rsi
	leaq	_ZSt4cout(%rip), %rax
	movq	%rax, %rdi
	call	_ZStlsISt11char_traitsIcEERSt13basic_ostreamIcT_ES5_PKc@PLT
	movq	_ZSt4endlIcSt11char_traitsIcEERSt13basic_ostreamIT_T0_ES6_@GOTPCREL(%rip), %rdx
	movq	%rdx, %rsi
	movq	%rax, %rdi
	call	_ZNSolsEPFRSoS_E@PLT
	leaq	.LC75(%rip), %rax
	movq	%rax, %rsi
	leaq	_ZSt4cout(%rip), %rax
	movq	%rax, %rdi
	call	_ZStlsISt11char_traitsIcEERSt13basic_ostreamIcT_ES5_PKc@PLT
	movq	%rax, %rbx
	movq	-88(%rbp), %rax
	movq	-88(%rbp), %rdx
	movl	172(%rdx), %edx
	movslq	%edx, %rdx
	movq	%rdx, %rsi
	movq	%rax, %rdi
	call	_ZNKSt6vectorINSt7__cxx1112basic_stringIcSt11char_traitsIcESaIcEEESaIS5_EEixEm
	movq	%rax, %rsi
	movq	%rbx, %rdi
	call	_ZStlsIcSt11char_traitsIcESaIcEERSt13basic_ostreamIT_T0_ES7_RKNSt7__cxx1112basic_stringIS4_S5_T1_EE@PLT
	movq	_ZSt4endlIcSt11char_traitsIcEERSt13basic_ostreamIT_T0_ES6_@GOTPCREL(%rip), %rdx
	movq	%rdx, %rsi
	movq	%rax, %rdi
	call	_ZNSolsEPFRSoS_E@PLT
	leaq	.LC76(%rip), %rax
	movq	%rax, %rsi
	leaq	_ZSt4cout(%rip), %rax
	movq	%rax, %rdi
	call	_ZStlsISt11char_traitsIcEERSt13basic_ostreamIcT_ES5_PKc@PLT
	movq	_ZSt4endlIcSt11char_traitsIcEERSt13basic_ostreamIT_T0_ES6_@GOTPCREL(%rip), %rdx
	movq	%rdx, %rsi
	movq	%rax, %rdi
	call	_ZNSolsEPFRSoS_E@PLT
	leaq	.LC77(%rip), %rax
	movq	%rax, %rsi
	leaq	_ZSt4cout(%rip), %rax
	movq	%rax, %rdi
	call	_ZStlsISt11char_traitsIcEERSt13basic_ostreamIcT_ES5_PKc@PLT
	movq	_ZSt4endlIcSt11char_traitsIcEERSt13basic_ostreamIT_T0_ES6_@GOTPCREL(%rip), %rdx
	movq	%rdx, %rsi
	movq	%rax, %rdi
	call	_ZNSolsEPFRSoS_E@PLT
	leaq	.LC78(%rip), %rax
	movq	%rax, %rsi
	leaq	_ZSt4cout(%rip), %rax
	movq	%rax, %rdi
	call	_ZStlsISt11char_traitsIcEERSt13basic_ostreamIcT_ES5_PKc@PLT
	movq	%rax, %rdx
	movq	-88(%rbp), %rax
	movl	168(%rax), %eax
	movl	%eax, %esi
	movq	%rdx, %rdi
	call	_ZNSolsEi@PLT
	movq	_ZSt4endlIcSt11char_traitsIcEERSt13basic_ostreamIT_T0_ES6_@GOTPCREL(%rip), %rdx
	movq	%rdx, %rsi
	movq	%rax, %rdi
	call	_ZNSolsEPFRSoS_E@PLT
	leaq	.LC73(%rip), %rax
	movq	%rax, %rsi
	leaq	_ZSt4cout(%rip), %rax
	movq	%rax, %rdi
	call	_ZStlsISt11char_traitsIcEERSt13basic_ostreamIcT_ES5_PKc@PLT
	movq	_ZSt4endlIcSt11char_traitsIcEERSt13basic_ostreamIT_T0_ES6_@GOTPCREL(%rip), %rdx
	movq	%rdx, %rsi
	movq	%rax, %rdi
	call	_ZNSolsEPFRSoS_E@PLT
.LEHE81:
	leaq	-48(%rbp), %rax
	movq	%rax, %rdi
	call	_ZNSt6vectorIcSaIcEED1Ev
	movq	-24(%rbp), %rax
	subq	%fs:40, %rax
	je	.L254
	jmp	.L257
.L255:
	endbr64
	movq	%rax, %rbx
	leaq	-77(%rbp), %rax
	movq	%rax, %rdi
	call	_ZNSaIcED1Ev@PLT
	movq	%rbx, %rax
	movq	%rax, %rdi
.LEHB82:
	call	_Unwind_Resume@PLT
.L256:
	endbr64
	movq	%rax, %rbx
	leaq	-48(%rbp), %rax
	movq	%rax, %rdi
	call	_ZNSt6vectorIcSaIcEED1Ev
	movq	%rbx, %rax
	movq	%rax, %rdi
	call	_Unwind_Resume@PLT
.LEHE82:
.L257:
	call	__stack_chk_fail@PLT
.L254:
	movq	-8(%rbp), %rbx
	leave
	.cfi_def_cfa 7, 8
	ret
	.cfi_endproc
.LFE9761:
	.section	.gcc_except_table
.LLSDA9761:
	.byte	0xff
	.byte	0xff
	.byte	0x1
	.uleb128 .LLSDACSE9761-.LLSDACSB9761
.LLSDACSB9761:
	.uleb128 .LEHB80-.LFB9761
	.uleb128 .LEHE80-.LEHB80
	.uleb128 .L255-.LFB9761
	.uleb128 0
	.uleb128 .LEHB81-.LFB9761
	.uleb128 .LEHE81-.LEHB81
	.uleb128 .L256-.LFB9761
	.uleb128 0
	.uleb128 .LEHB82-.LFB9761
	.uleb128 .LEHE82-.LEHB82
	.uleb128 0
	.uleb128 0
.LLSDACSE9761:
	.text
	.size	_ZN5Board16print_full_boardEv, .-_ZN5Board16print_full_boardEv
	.section	.text._ZN5Board8southOneERy,"axG",@progbits,_ZN5Board8southOneERy,comdat
	.align 2
	.weak	_ZN5Board8southOneERy
	.type	_ZN5Board8southOneERy, @function
_ZN5Board8southOneERy:
.LFB9762:
	.cfi_startproc
	endbr64
	pushq	%rbp
	.cfi_def_cfa_offset 16
	.cfi_offset 6, -16
	movq	%rsp, %rbp
	.cfi_def_cfa_register 6
	movq	%rdi, -8(%rbp)
	movq	%rsi, -16(%rbp)
	movq	-16(%rbp), %rax
	movq	(%rax), %rax
	salq	$8, %rax
	popq	%rbp
	.cfi_def_cfa 7, 8
	ret
	.cfi_endproc
.LFE9762:
	.size	_ZN5Board8southOneERy, .-_ZN5Board8southOneERy
	.section	.text._ZN5Board8northOneERy,"axG",@progbits,_ZN5Board8northOneERy,comdat
	.align 2
	.weak	_ZN5Board8northOneERy
	.type	_ZN5Board8northOneERy, @function
_ZN5Board8northOneERy:
.LFB9763:
	.cfi_startproc
	endbr64
	pushq	%rbp
	.cfi_def_cfa_offset 16
	.cfi_offset 6, -16
	movq	%rsp, %rbp
	.cfi_def_cfa_register 6
	movq	%rdi, -8(%rbp)
	movq	%rsi, -16(%rbp)
	movq	-16(%rbp), %rax
	movq	(%rax), %rax
	shrq	$8, %rax
	popq	%rbp
	.cfi_def_cfa 7, 8
	ret
	.cfi_endproc
.LFE9763:
	.size	_ZN5Board8northOneERy, .-_ZN5Board8northOneERy
	.section	.text._ZN5Board7eastOneERy,"axG",@progbits,_ZN5Board7eastOneERy,comdat
	.align 2
	.weak	_ZN5Board7eastOneERy
	.type	_ZN5Board7eastOneERy, @function
_ZN5Board7eastOneERy:
.LFB9764:
	.cfi_startproc
	endbr64
	pushq	%rbp
	.cfi_def_cfa_offset 16
	.cfi_offset 6, -16
	movq	%rsp, %rbp
	.cfi_def_cfa_register 6
	movq	%rdi, -8(%rbp)
	movq	%rsi, -16(%rbp)
	movq	-16(%rbp), %rax
	movq	(%rax), %rax
	leaq	(%rax,%rax), %rdx
	movq	-8(%rbp), %rax
	movq	184(%rax), %rax
	andq	%rdx, %rax
	popq	%rbp
	.cfi_def_cfa 7, 8
	ret
	.cfi_endproc
.LFE9764:
	.size	_ZN5Board7eastOneERy, .-_ZN5Board7eastOneERy
	.section	.text._ZN5Board7westOneERy,"axG",@progbits,_ZN5Board7westOneERy,comdat
	.align 2
	.weak	_ZN5Board7westOneERy
	.type	_ZN5Board7westOneERy, @function
_ZN5Board7westOneERy:
.LFB9765:
	.cfi_startproc
	endbr64
	pushq	%rbp
	.cfi_def_cfa_offset 16
	.cfi_offset 6, -16
	movq	%rsp, %rbp
	.cfi_def_cfa_register 6
	movq	%rdi, -8(%rbp)
	movq	%rsi, -16(%rbp)
	movq	-16(%rbp), %rax
	movq	(%rax), %rax
	shrq	%rax
	movq	%rax, %rdx
	movq	-8(%rbp), %rax
	movq	192(%rax), %rax
	andq	%rdx, %rax
	popq	%rbp
	.cfi_def_cfa 7, 8
	ret
	.cfi_endproc
.LFE9765:
	.size	_ZN5Board7westOneERy, .-_ZN5Board7westOneERy
	.section	.text._ZN5Board12northWestOneERy,"axG",@progbits,_ZN5Board12northWestOneERy,comdat
	.align 2
	.weak	_ZN5Board12northWestOneERy
	.type	_ZN5Board12northWestOneERy, @function
_ZN5Board12northWestOneERy:
.LFB9766:
	.cfi_startproc
	endbr64
	pushq	%rbp
	.cfi_def_cfa_offset 16
	.cfi_offset 6, -16
	movq	%rsp, %rbp
	.cfi_def_cfa_register 6
	movq	%rdi, -8(%rbp)
	movq	%rsi, -16(%rbp)
	movq	-16(%rbp), %rax
	movq	(%rax), %rax
	shrq	$9, %rax
	movq	%rax, %rdx
	movq	-8(%rbp), %rax
	movq	192(%rax), %rax
	andq	%rdx, %rax
	popq	%rbp
	.cfi_def_cfa 7, 8
	ret
	.cfi_endproc
.LFE9766:
	.size	_ZN5Board12northWestOneERy, .-_ZN5Board12northWestOneERy
	.section	.text._ZN5Board12northEastOneERy,"axG",@progbits,_ZN5Board12northEastOneERy,comdat
	.align 2
	.weak	_ZN5Board12northEastOneERy
	.type	_ZN5Board12northEastOneERy, @function
_ZN5Board12northEastOneERy:
.LFB9767:
	.cfi_startproc
	endbr64
	pushq	%rbp
	.cfi_def_cfa_offset 16
	.cfi_offset 6, -16
	movq	%rsp, %rbp
	.cfi_def_cfa_register 6
	movq	%rdi, -8(%rbp)
	movq	%rsi, -16(%rbp)
	movq	-16(%rbp), %rax
	movq	(%rax), %rax
	shrq	$7, %rax
	movq	%rax, %rdx
	movq	-8(%rbp), %rax
	movq	184(%rax), %rax
	andq	%rdx, %rax
	popq	%rbp
	.cfi_def_cfa 7, 8
	ret
	.cfi_endproc
.LFE9767:
	.size	_ZN5Board12northEastOneERy, .-_ZN5Board12northEastOneERy
	.section	.text._ZN5Board12southWestOneERy,"axG",@progbits,_ZN5Board12southWestOneERy,comdat
	.align 2
	.weak	_ZN5Board12southWestOneERy
	.type	_ZN5Board12southWestOneERy, @function
_ZN5Board12southWestOneERy:
.LFB9768:
	.cfi_startproc
	endbr64
	pushq	%rbp
	.cfi_def_cfa_offset 16
	.cfi_offset 6, -16
	movq	%rsp, %rbp
	.cfi_def_cfa_register 6
	movq	%rdi, -8(%rbp)
	movq	%rsi, -16(%rbp)
	movq	-16(%rbp), %rax
	movq	(%rax), %rax
	salq	$7, %rax
	movq	%rax, %rdx
	movq	-8(%rbp), %rax
	movq	192(%rax), %rax
	andq	%rdx, %rax
	popq	%rbp
	.cfi_def_cfa 7, 8
	ret
	.cfi_endproc
.LFE9768:
	.size	_ZN5Board12southWestOneERy, .-_ZN5Board12southWestOneERy
	.section	.text._ZN5Board12southEastOneERy,"axG",@progbits,_ZN5Board12southEastOneERy,comdat
	.align 2
	.weak	_ZN5Board12southEastOneERy
	.type	_ZN5Board12southEastOneERy, @function
_ZN5Board12southEastOneERy:
.LFB9769:
	.cfi_startproc
	endbr64
	pushq	%rbp
	.cfi_def_cfa_offset 16
	.cfi_offset 6, -16
	movq	%rsp, %rbp
	.cfi_def_cfa_register 6
	movq	%rdi, -8(%rbp)
	movq	%rsi, -16(%rbp)
	movq	-16(%rbp), %rax
	movq	(%rax), %rax
	salq	$9, %rax
	movq	%rax, %rdx
	movq	-8(%rbp), %rax
	movq	184(%rax), %rax
	andq	%rdx, %rax
	popq	%rbp
	.cfi_def_cfa 7, 8
	ret
	.cfi_endproc
.LFE9769:
	.size	_ZN5Board12southEastOneERy, .-_ZN5Board12southEastOneERy
	.section	.text._ZN5Board6soSoEaEy,"axG",@progbits,_ZN5Board6soSoEaEy,comdat
	.align 2
	.weak	_ZN5Board6soSoEaEy
	.type	_ZN5Board6soSoEaEy, @function
_ZN5Board6soSoEaEy:
.LFB9770:
	.cfi_startproc
	endbr64
	pushq	%rbp
	.cfi_def_cfa_offset 16
	.cfi_offset 6, -16
	movq	%rsp, %rbp
	.cfi_def_cfa_register 6
	movq	%rdi, -8(%rbp)
	movq	%rsi, -16(%rbp)
	movq	-16(%rbp), %rax
	salq	$17, %rax
	movq	%rax, %rdx
	movq	-8(%rbp), %rax
	movq	184(%rax), %rax
	andq	%rdx, %rax
	popq	%rbp
	.cfi_def_cfa 7, 8
	ret
	.cfi_endproc
.LFE9770:
	.size	_ZN5Board6soSoEaEy, .-_ZN5Board6soSoEaEy
	.section	.text._ZN5Board6soEaEaEy,"axG",@progbits,_ZN5Board6soEaEaEy,comdat
	.align 2
	.weak	_ZN5Board6soEaEaEy
	.type	_ZN5Board6soEaEaEy, @function
_ZN5Board6soEaEaEy:
.LFB9771:
	.cfi_startproc
	endbr64
	pushq	%rbp
	.cfi_def_cfa_offset 16
	.cfi_offset 6, -16
	movq	%rsp, %rbp
	.cfi_def_cfa_register 6
	movq	%rdi, -8(%rbp)
	movq	%rsi, -16(%rbp)
	movq	-16(%rbp), %rax
	salq	$10, %rax
	movq	%rax, %rdx
	movq	-8(%rbp), %rax
	movq	208(%rax), %rax
	andq	%rdx, %rax
	popq	%rbp
	.cfi_def_cfa 7, 8
	ret
	.cfi_endproc
.LFE9771:
	.size	_ZN5Board6soEaEaEy, .-_ZN5Board6soEaEaEy
	.section	.text._ZN5Board6noEaEaEy,"axG",@progbits,_ZN5Board6noEaEaEy,comdat
	.align 2
	.weak	_ZN5Board6noEaEaEy
	.type	_ZN5Board6noEaEaEy, @function
_ZN5Board6noEaEaEy:
.LFB9772:
	.cfi_startproc
	endbr64
	pushq	%rbp
	.cfi_def_cfa_offset 16
	.cfi_offset 6, -16
	movq	%rsp, %rbp
	.cfi_def_cfa_register 6
	movq	%rdi, -8(%rbp)
	movq	%rsi, -16(%rbp)
	movq	-16(%rbp), %rax
	shrq	$6, %rax
	movq	%rax, %rdx
	movq	-8(%rbp), %rax
	movq	208(%rax), %rax
	andq	%rdx, %rax
	popq	%rbp
	.cfi_def_cfa 7, 8
	ret
	.cfi_endproc
.LFE9772:
	.size	_ZN5Board6noEaEaEy, .-_ZN5Board6noEaEaEy
	.section	.text._ZN5Board6noNoEaEy,"axG",@progbits,_ZN5Board6noNoEaEy,comdat
	.align 2
	.weak	_ZN5Board6noNoEaEy
	.type	_ZN5Board6noNoEaEy, @function
_ZN5Board6noNoEaEy:
.LFB9773:
	.cfi_startproc
	endbr64
	pushq	%rbp
	.cfi_def_cfa_offset 16
	.cfi_offset 6, -16
	movq	%rsp, %rbp
	.cfi_def_cfa_register 6
	movq	%rdi, -8(%rbp)
	movq	%rsi, -16(%rbp)
	movq	-16(%rbp), %rax
	shrq	$15, %rax
	movq	%rax, %rdx
	movq	-8(%rbp), %rax
	movq	184(%rax), %rax
	andq	%rdx, %rax
	popq	%rbp
	.cfi_def_cfa 7, 8
	ret
	.cfi_endproc
.LFE9773:
	.size	_ZN5Board6noNoEaEy, .-_ZN5Board6noNoEaEy
	.section	.text._ZN5Board6soSoWeEy,"axG",@progbits,_ZN5Board6soSoWeEy,comdat
	.align 2
	.weak	_ZN5Board6soSoWeEy
	.type	_ZN5Board6soSoWeEy, @function
_ZN5Board6soSoWeEy:
.LFB9774:
	.cfi_startproc
	endbr64
	pushq	%rbp
	.cfi_def_cfa_offset 16
	.cfi_offset 6, -16
	movq	%rsp, %rbp
	.cfi_def_cfa_register 6
	movq	%rdi, -8(%rbp)
	movq	%rsi, -16(%rbp)
	movq	-16(%rbp), %rax
	salq	$15, %rax
	movq	%rax, %rdx
	movq	-8(%rbp), %rax
	movq	192(%rax), %rax
	andq	%rdx, %rax
	popq	%rbp
	.cfi_def_cfa 7, 8
	ret
	.cfi_endproc
.LFE9774:
	.size	_ZN5Board6soSoWeEy, .-_ZN5Board6soSoWeEy
	.section	.text._ZN5Board6soWeWeEy,"axG",@progbits,_ZN5Board6soWeWeEy,comdat
	.align 2
	.weak	_ZN5Board6soWeWeEy
	.type	_ZN5Board6soWeWeEy, @function
_ZN5Board6soWeWeEy:
.LFB9775:
	.cfi_startproc
	endbr64
	pushq	%rbp
	.cfi_def_cfa_offset 16
	.cfi_offset 6, -16
	movq	%rsp, %rbp
	.cfi_def_cfa_register 6
	movq	%rdi, -8(%rbp)
	movq	%rsi, -16(%rbp)
	movq	-16(%rbp), %rax
	salq	$6, %rax
	movq	%rax, %rdx
	movq	-8(%rbp), %rax
	movq	200(%rax), %rax
	andq	%rdx, %rax
	popq	%rbp
	.cfi_def_cfa 7, 8
	ret
	.cfi_endproc
.LFE9775:
	.size	_ZN5Board6soWeWeEy, .-_ZN5Board6soWeWeEy
	.section	.text._ZN5Board6noWeWeEy,"axG",@progbits,_ZN5Board6noWeWeEy,comdat
	.align 2
	.weak	_ZN5Board6noWeWeEy
	.type	_ZN5Board6noWeWeEy, @function
_ZN5Board6noWeWeEy:
.LFB9776:
	.cfi_startproc
	endbr64
	pushq	%rbp
	.cfi_def_cfa_offset 16
	.cfi_offset 6, -16
	movq	%rsp, %rbp
	.cfi_def_cfa_register 6
	movq	%rdi, -8(%rbp)
	movq	%rsi, -16(%rbp)
	movq	-16(%rbp), %rax
	shrq	$10, %rax
	movq	%rax, %rdx
	movq	-8(%rbp), %rax
	movq	200(%rax), %rax
	andq	%rdx, %rax
	popq	%rbp
	.cfi_def_cfa 7, 8
	ret
	.cfi_endproc
.LFE9776:
	.size	_ZN5Board6noWeWeEy, .-_ZN5Board6noWeWeEy
	.section	.text._ZN5Board6noNoWeEy,"axG",@progbits,_ZN5Board6noNoWeEy,comdat
	.align 2
	.weak	_ZN5Board6noNoWeEy
	.type	_ZN5Board6noNoWeEy, @function
_ZN5Board6noNoWeEy:
.LFB9777:
	.cfi_startproc
	endbr64
	pushq	%rbp
	.cfi_def_cfa_offset 16
	.cfi_offset 6, -16
	movq	%rsp, %rbp
	.cfi_def_cfa_register 6
	movq	%rdi, -8(%rbp)
	movq	%rsi, -16(%rbp)
	movq	-16(%rbp), %rax
	shrq	$17, %rax
	movq	%rax, %rdx
	movq	-8(%rbp), %rax
	movq	192(%rax), %rax
	andq	%rdx, %rax
	popq	%rbp
	.cfi_def_cfa 7, 8
	ret
	.cfi_endproc
.LFE9777:
	.size	_ZN5Board6noNoWeEy, .-_ZN5Board6noNoWeEy
	.section	.text._ZN5Board13get_pawn_pushEii,"axG",@progbits,_ZN5Board13get_pawn_pushEii,comdat
	.align 2
	.weak	_ZN5Board13get_pawn_pushEii
	.type	_ZN5Board13get_pawn_pushEii, @function
_ZN5Board13get_pawn_pushEii:
.LFB9778:
	.cfi_startproc
	endbr64
	pushq	%rbp
	.cfi_def_cfa_offset 16
	.cfi_offset 6, -16
	movq	%rsp, %rbp
	.cfi_def_cfa_register 6
	pushq	%rbx
	subq	$56, %rsp
	.cfi_offset 3, -24
	movq	%rdi, -56(%rbp)
	movl	%esi, -60(%rbp)
	movl	%edx, -64(%rbp)
	movq	%fs:40, %rax
	movq	%rax, -24(%rbp)
	xorl	%eax, %eax
	movq	$0, -40(%rbp)
	movq	$0, -32(%rbp)
	movl	-64(%rbp), %edx
	leaq	-40(%rbp), %rcx
	movq	-56(%rbp), %rax
	movq	%rcx, %rsi
	movq	%rax, %rdi
	call	_ZN5Board7set_bitERyi
	cmpl	$0, -60(%rbp)
	jne	.L291
	leaq	-40(%rbp), %rdx
	movq	-56(%rbp), %rax
	movq	%rdx, %rsi
	movq	%rax, %rdi
	call	_ZN5Board8northOneERy
	movq	%rax, %rbx
	movq	-56(%rbp), %rax
	leaq	120(%rax), %rdx
	movb	$69, -41(%rbp)
	leaq	-41(%rbp), %rax
	movq	%rax, %rsi
	movq	%rdx, %rdi
	call	_ZNSt3mapIcySt4lessIcESaISt4pairIKcyEEEixEOc
	movq	(%rax), %rax
	andq	%rbx, %rax
	movq	%rax, -40(%rbp)
	movl	-64(%rbp), %eax
	subl	$48, %eax
	cmpl	$7, %eax
	ja	.L292
	movq	-40(%rbp), %rax
	testq	%rax, %rax
	je	.L292
	leaq	-40(%rbp), %rdx
	movq	-56(%rbp), %rax
	movq	%rdx, %rsi
	movq	%rax, %rdi
	call	_ZN5Board8northOneERy
	movq	%rax, -32(%rbp)
	jmp	.L292
.L291:
	leaq	-40(%rbp), %rdx
	movq	-56(%rbp), %rax
	movq	%rdx, %rsi
	movq	%rax, %rdi
	call	_ZN5Board8southOneERy
	movq	%rax, %rbx
	movq	-56(%rbp), %rax
	leaq	120(%rax), %rdx
	movb	$69, -41(%rbp)
	leaq	-41(%rbp), %rax
	movq	%rax, %rsi
	movq	%rdx, %rdi
	call	_ZNSt3mapIcySt4lessIcESaISt4pairIKcyEEEixEOc
	movq	(%rax), %rax
	andq	%rbx, %rax
	movq	%rax, -40(%rbp)
	movl	-64(%rbp), %eax
	subl	$8, %eax
	cmpl	$7, %eax
	ja	.L292
	movq	-40(%rbp), %rax
	testq	%rax, %rax
	je	.L292
	leaq	-40(%rbp), %rdx
	movq	-56(%rbp), %rax
	movq	%rdx, %rsi
	movq	%rax, %rdi
	call	_ZN5Board8southOneERy
	movq	%rax, -32(%rbp)
.L292:
	movq	-40(%rbp), %rax
	orq	-32(%rbp), %rax
	movq	%rax, %rbx
	movq	-56(%rbp), %rax
	leaq	120(%rax), %rdx
	movb	$69, -41(%rbp)
	leaq	-41(%rbp), %rax
	movq	%rax, %rsi
	movq	%rdx, %rdi
	call	_ZNSt3mapIcySt4lessIcESaISt4pairIKcyEEEixEOc
	movq	(%rax), %rax
	andq	%rbx, %rax
	movq	-24(%rbp), %rdx
	subq	%fs:40, %rdx
	je	.L294
	call	__stack_chk_fail@PLT
.L294:
	movq	-8(%rbp), %rbx
	leave
	.cfi_def_cfa 7, 8
	ret
	.cfi_endproc
.LFE9778:
	.size	_ZN5Board13get_pawn_pushEii, .-_ZN5Board13get_pawn_pushEii
	.section	.text._ZN5Board15get_pawn_attackEii,"axG",@progbits,_ZN5Board15get_pawn_attackEii,comdat
	.align 2
	.weak	_ZN5Board15get_pawn_attackEii
	.type	_ZN5Board15get_pawn_attackEii, @function
_ZN5Board15get_pawn_attackEii:
.LFB9779:
	.cfi_startproc
	endbr64
	pushq	%rbp
	.cfi_def_cfa_offset 16
	.cfi_offset 6, -16
	movq	%rsp, %rbp
	.cfi_def_cfa_register 6
	subq	$48, %rsp
	movq	%rdi, -40(%rbp)
	movl	%esi, -44(%rbp)
	movl	%edx, -48(%rbp)
	movq	%fs:40, %rax
	movq	%rax, -8(%rbp)
	xorl	%eax, %eax
	movq	$0, -32(%rbp)
	movq	$0, -24(%rbp)
	movl	-44(%rbp), %edx
	leaq	-32(%rbp), %rcx
	movq	-40(%rbp), %rax
	movq	%rcx, %rsi
	movq	%rax, %rdi
	call	_ZN5Board7set_bitERyi
	movl	-44(%rbp), %edx
	leaq	-24(%rbp), %rcx
	movq	-40(%rbp), %rax
	movq	%rcx, %rsi
	movq	%rax, %rdi
	call	_ZN5Board7set_bitERyi
	cmpl	$0, -48(%rbp)
	jne	.L296
	leaq	-32(%rbp), %rdx
	movq	-40(%rbp), %rax
	movq	%rdx, %rsi
	movq	%rax, %rdi
	call	_ZN5Board12northWestOneERy
	movq	%rax, -32(%rbp)
	leaq	-24(%rbp), %rdx
	movq	-40(%rbp), %rax
	movq	%rdx, %rsi
	movq	%rax, %rdi
	call	_ZN5Board12northEastOneERy
	movq	%rax, -24(%rbp)
	jmp	.L297
.L296:
	leaq	-32(%rbp), %rdx
	movq	-40(%rbp), %rax
	movq	%rdx, %rsi
	movq	%rax, %rdi
	call	_ZN5Board12southWestOneERy
	movq	%rax, -32(%rbp)
	leaq	-24(%rbp), %rdx
	movq	-40(%rbp), %rax
	movq	%rdx, %rsi
	movq	%rax, %rdi
	call	_ZN5Board12southEastOneERy
	movq	%rax, -24(%rbp)
.L297:
	movq	-32(%rbp), %rdx
	movq	-24(%rbp), %rax
	orq	%rdx, %rax
	movq	%rax, -16(%rbp)
	movq	-16(%rbp), %rax
	movq	-8(%rbp), %rdx
	subq	%fs:40, %rdx
	je	.L299
	call	__stack_chk_fail@PLT
.L299:
	leave
	.cfi_def_cfa 7, 8
	ret
	.cfi_endproc
.LFE9779:
	.size	_ZN5Board15get_pawn_attackEii, .-_ZN5Board15get_pawn_attackEii
	.text
	.align 2
	.globl	_ZN5Board17get_knight_attackEi
	.type	_ZN5Board17get_knight_attackEi, @function
_ZN5Board17get_knight_attackEi:
.LFB9780:
	.cfi_startproc
	endbr64
	pushq	%rbp
	.cfi_def_cfa_offset 16
	.cfi_offset 6, -16
	movq	%rsp, %rbp
	.cfi_def_cfa_register 6
	subq	$48, %rsp
	movq	%rdi, -40(%rbp)
	movl	%esi, -44(%rbp)
	movq	%fs:40, %rax
	movq	%rax, -8(%rbp)
	xorl	%eax, %eax
	movq	$0, -24(%rbp)
	movq	$0, -16(%rbp)
	movl	-44(%rbp), %edx
	leaq	-24(%rbp), %rcx
	movq	-40(%rbp), %rax
	movq	%rcx, %rsi
	movq	%rax, %rdi
	call	_ZN5Board7set_bitERyi
	movq	-24(%rbp), %rdx
	movq	-40(%rbp), %rax
	movq	%rdx, %rsi
	movq	%rax, %rdi
	call	_ZN5Board6soSoWeEy
	testq	%rax, %rax
	setne	%al
	testb	%al, %al
	je	.L301
	movq	-24(%rbp), %rax
	salq	$15, %rax
	orq	%rax, -16(%rbp)
.L301:
	movq	-24(%rbp), %rdx
	movq	-40(%rbp), %rax
	movq	%rdx, %rsi
	movq	%rax, %rdi
	call	_ZN5Board6soSoEaEy
	testq	%rax, %rax
	setne	%al
	testb	%al, %al
	je	.L302
	movq	-24(%rbp), %rax
	salq	$17, %rax
	orq	%rax, -16(%rbp)
.L302:
	movq	-24(%rbp), %rdx
	movq	-40(%rbp), %rax
	movq	%rdx, %rsi
	movq	%rax, %rdi
	call	_ZN5Board6soWeWeEy
	testq	%rax, %rax
	setne	%al
	testb	%al, %al
	je	.L303
	movq	-24(%rbp), %rax
	salq	$6, %rax
	orq	%rax, -16(%rbp)
.L303:
	movq	-24(%rbp), %rdx
	movq	-40(%rbp), %rax
	movq	%rdx, %rsi
	movq	%rax, %rdi
	call	_ZN5Board6soEaEaEy
	testq	%rax, %rax
	setne	%al
	testb	%al, %al
	je	.L304
	movq	-24(%rbp), %rax
	salq	$10, %rax
	orq	%rax, -16(%rbp)
.L304:
	movq	-24(%rbp), %rdx
	movq	-40(%rbp), %rax
	movq	%rdx, %rsi
	movq	%rax, %rdi
	call	_ZN5Board6noNoEaEy
	testq	%rax, %rax
	setne	%al
	testb	%al, %al
	je	.L305
	movq	-24(%rbp), %rax
	shrq	$15, %rax
	orq	%rax, -16(%rbp)
.L305:
	movq	-24(%rbp), %rdx
	movq	-40(%rbp), %rax
	movq	%rdx, %rsi
	movq	%rax, %rdi
	call	_ZN5Board6noNoWeEy
	testq	%rax, %rax
	setne	%al
	testb	%al, %al
	je	.L306
	movq	-24(%rbp), %rax
	shrq	$17, %rax
	orq	%rax, -16(%rbp)
.L306:
	movq	-24(%rbp), %rdx
	movq	-40(%rbp), %rax
	movq	%rdx, %rsi
	movq	%rax, %rdi
	call	_ZN5Board6noEaEaEy
	testq	%rax, %rax
	setne	%al
	testb	%al, %al
	je	.L307
	movq	-24(%rbp), %rax
	shrq	$6, %rax
	orq	%rax, -16(%rbp)
.L307:
	movq	-24(%rbp), %rdx
	movq	-40(%rbp), %rax
	movq	%rdx, %rsi
	movq	%rax, %rdi
	call	_ZN5Board6noWeWeEy
	testq	%rax, %rax
	setne	%al
	testb	%al, %al
	je	.L308
	movq	-24(%rbp), %rax
	shrq	$10, %rax
	orq	%rax, -16(%rbp)
.L308:
	movq	-16(%rbp), %rax
	movq	-8(%rbp), %rdx
	subq	%fs:40, %rdx
	je	.L310
	call	__stack_chk_fail@PLT
.L310:
	leave
	.cfi_def_cfa 7, 8
	ret
	.cfi_endproc
.LFE9780:
	.size	_ZN5Board17get_knight_attackEi, .-_ZN5Board17get_knight_attackEi
	.align 2
	.globl	_ZN5Board15get_king_attackEi
	.type	_ZN5Board15get_king_attackEi, @function
_ZN5Board15get_king_attackEi:
.LFB9781:
	.cfi_startproc
	endbr64
	pushq	%rbp
	.cfi_def_cfa_offset 16
	.cfi_offset 6, -16
	movq	%rsp, %rbp
	.cfi_def_cfa_register 6
	subq	$48, %rsp
	movq	%rdi, -40(%rbp)
	movl	%esi, -44(%rbp)
	movq	%fs:40, %rax
	movq	%rax, -8(%rbp)
	xorl	%eax, %eax
	movq	$0, -24(%rbp)
	movq	$0, -16(%rbp)
	movl	-44(%rbp), %edx
	leaq	-24(%rbp), %rcx
	movq	-40(%rbp), %rax
	movq	%rcx, %rsi
	movq	%rax, %rdi
	call	_ZN5Board7set_bitERyi
	leaq	-24(%rbp), %rdx
	movq	-40(%rbp), %rax
	movq	%rdx, %rsi
	movq	%rax, %rdi
	call	_ZN5Board8southOneERy
	testq	%rax, %rax
	setne	%al
	testb	%al, %al
	je	.L312
	movq	-24(%rbp), %rax
	salq	$8, %rax
	orq	%rax, -16(%rbp)
.L312:
	leaq	-24(%rbp), %rdx
	movq	-40(%rbp), %rax
	movq	%rdx, %rsi
	movq	%rax, %rdi
	call	_ZN5Board12southWestOneERy
	testq	%rax, %rax
	setne	%al
	testb	%al, %al
	je	.L313
	movq	-24(%rbp), %rax
	salq	$7, %rax
	orq	%rax, -16(%rbp)
.L313:
	leaq	-24(%rbp), %rdx
	movq	-40(%rbp), %rax
	movq	%rdx, %rsi
	movq	%rax, %rdi
	call	_ZN5Board12southEastOneERy
	testq	%rax, %rax
	setne	%al
	testb	%al, %al
	je	.L314
	movq	-24(%rbp), %rax
	salq	$9, %rax
	orq	%rax, -16(%rbp)
.L314:
	leaq	-24(%rbp), %rdx
	movq	-40(%rbp), %rax
	movq	%rdx, %rsi
	movq	%rax, %rdi
	call	_ZN5Board7westOneERy
	testq	%rax, %rax
	setne	%al
	testb	%al, %al
	je	.L315
	movq	-24(%rbp), %rax
	shrq	%rax
	orq	%rax, -16(%rbp)
.L315:
	leaq	-24(%rbp), %rdx
	movq	-40(%rbp), %rax
	movq	%rdx, %rsi
	movq	%rax, %rdi
	call	_ZN5Board8northOneERy
	testq	%rax, %rax
	setne	%al
	testb	%al, %al
	je	.L316
	movq	-24(%rbp), %rax
	shrq	$8, %rax
	orq	%rax, -16(%rbp)
.L316:
	leaq	-24(%rbp), %rdx
	movq	-40(%rbp), %rax
	movq	%rdx, %rsi
	movq	%rax, %rdi
	call	_ZN5Board12northEastOneERy
	testq	%rax, %rax
	setne	%al
	testb	%al, %al
	je	.L317
	movq	-24(%rbp), %rax
	shrq	$7, %rax
	orq	%rax, -16(%rbp)
.L317:
	leaq	-24(%rbp), %rdx
	movq	-40(%rbp), %rax
	movq	%rdx, %rsi
	movq	%rax, %rdi
	call	_ZN5Board12northWestOneERy
	testq	%rax, %rax
	setne	%al
	testb	%al, %al
	je	.L318
	movq	-24(%rbp), %rax
	shrq	$9, %rax
	orq	%rax, -16(%rbp)
.L318:
	leaq	-24(%rbp), %rdx
	movq	-40(%rbp), %rax
	movq	%rdx, %rsi
	movq	%rax, %rdi
	call	_ZN5Board7eastOneERy
	testq	%rax, %rax
	setne	%al
	testb	%al, %al
	je	.L319
	movq	-24(%rbp), %rax
	addq	%rax, %rax
	orq	%rax, -16(%rbp)
.L319:
	movq	-16(%rbp), %rax
	movq	-8(%rbp), %rdx
	subq	%fs:40, %rdx
	je	.L321
	call	__stack_chk_fail@PLT
.L321:
	leave
	.cfi_def_cfa 7, 8
	ret
	.cfi_endproc
.LFE9781:
	.size	_ZN5Board15get_king_attackEi, .-_ZN5Board15get_king_attackEi
	.align 2
	.globl	_ZN5Board17get_bishop_attackEi
	.type	_ZN5Board17get_bishop_attackEi, @function
_ZN5Board17get_bishop_attackEi:
.LFB9782:
	.cfi_startproc
	endbr64
	pushq	%rbp
	.cfi_def_cfa_offset 16
	.cfi_offset 6, -16
	movq	%rsp, %rbp
	.cfi_def_cfa_register 6
	subq	$48, %rsp
	movq	%rdi, -40(%rbp)
	movl	%esi, -44(%rbp)
	movq	%fs:40, %rax
	movq	%rax, -8(%rbp)
	xorl	%eax, %eax
	movq	$0, -16(%rbp)
	movl	-44(%rbp), %eax
	leal	7(%rax), %edx
	testl	%eax, %eax
	cmovs	%edx, %eax
	sarl	$3, %eax
	movl	%eax, -24(%rbp)
	movl	-44(%rbp), %eax
	cltd
	shrl	$29, %edx
	addl	%edx, %eax
	andl	$7, %eax
	subl	%edx, %eax
	movl	%eax, -20(%rbp)
	movl	-24(%rbp), %eax
	subl	$1, %eax
	movl	%eax, -32(%rbp)
	movl	-20(%rbp), %eax
	addl	$1, %eax
	movl	%eax, -28(%rbp)
	jmp	.L323
.L325:
	movl	-32(%rbp), %eax
	leal	0(,%rax,8), %edx
	movl	-28(%rbp), %eax
	addl	%eax, %edx
	leaq	-16(%rbp), %rcx
	movq	-40(%rbp), %rax
	movq	%rcx, %rsi
	movq	%rax, %rdi
	call	_ZN5Board7set_bitERyi
	subl	$1, -32(%rbp)
	addl	$1, -28(%rbp)
.L323:
	cmpl	$0, -32(%rbp)
	jle	.L324
	cmpl	$6, -28(%rbp)
	jle	.L325
.L324:
	movl	-24(%rbp), %eax
	addl	$1, %eax
	movl	%eax, -32(%rbp)
	movl	-20(%rbp), %eax
	addl	$1, %eax
	movl	%eax, -28(%rbp)
	jmp	.L326
.L328:
	movl	-32(%rbp), %eax
	leal	0(,%rax,8), %edx
	movl	-28(%rbp), %eax
	addl	%eax, %edx
	leaq	-16(%rbp), %rcx
	movq	-40(%rbp), %rax
	movq	%rcx, %rsi
	movq	%rax, %rdi
	call	_ZN5Board7set_bitERyi
	addl	$1, -32(%rbp)
	addl	$1, -28(%rbp)
.L326:
	cmpl	$6, -32(%rbp)
	jg	.L327
	cmpl	$6, -28(%rbp)
	jle	.L328
.L327:
	movl	-24(%rbp), %eax
	addl	$1, %eax
	movl	%eax, -32(%rbp)
	movl	-20(%rbp), %eax
	subl	$1, %eax
	movl	%eax, -28(%rbp)
	jmp	.L329
.L331:
	movl	-32(%rbp), %eax
	leal	0(,%rax,8), %edx
	movl	-28(%rbp), %eax
	addl	%eax, %edx
	leaq	-16(%rbp), %rcx
	movq	-40(%rbp), %rax
	movq	%rcx, %rsi
	movq	%rax, %rdi
	call	_ZN5Board7set_bitERyi
	addl	$1, -32(%rbp)
	subl	$1, -28(%rbp)
.L329:
	cmpl	$6, -32(%rbp)
	jg	.L330
	cmpl	$0, -28(%rbp)
	jg	.L331
.L330:
	movl	-24(%rbp), %eax
	subl	$1, %eax
	movl	%eax, -32(%rbp)
	movl	-20(%rbp), %eax
	subl	$1, %eax
	movl	%eax, -28(%rbp)
	jmp	.L332
.L334:
	movl	-32(%rbp), %eax
	leal	0(,%rax,8), %edx
	movl	-28(%rbp), %eax
	addl	%eax, %edx
	leaq	-16(%rbp), %rcx
	movq	-40(%rbp), %rax
	movq	%rcx, %rsi
	movq	%rax, %rdi
	call	_ZN5Board7set_bitERyi
	subl	$1, -32(%rbp)
	subl	$1, -28(%rbp)
.L332:
	cmpl	$0, -32(%rbp)
	jle	.L333
	cmpl	$0, -28(%rbp)
	jg	.L334
.L333:
	movq	-16(%rbp), %rax
	movq	-8(%rbp), %rdx
	subq	%fs:40, %rdx
	je	.L336
	call	__stack_chk_fail@PLT
.L336:
	leave
	.cfi_def_cfa 7, 8
	ret
	.cfi_endproc
.LFE9782:
	.size	_ZN5Board17get_bishop_attackEi, .-_ZN5Board17get_bishop_attackEi
	.align 2
	.globl	_ZN5Board15get_rook_attackEi
	.type	_ZN5Board15get_rook_attackEi, @function
_ZN5Board15get_rook_attackEi:
.LFB9783:
	.cfi_startproc
	endbr64
	pushq	%rbp
	.cfi_def_cfa_offset 16
	.cfi_offset 6, -16
	movq	%rsp, %rbp
	.cfi_def_cfa_register 6
	subq	$48, %rsp
	movq	%rdi, -40(%rbp)
	movl	%esi, -44(%rbp)
	movq	%fs:40, %rax
	movq	%rax, -8(%rbp)
	xorl	%eax, %eax
	movq	$0, -16(%rbp)
	movl	-44(%rbp), %eax
	leal	7(%rax), %edx
	testl	%eax, %eax
	cmovs	%edx, %eax
	sarl	$3, %eax
	movl	%eax, -24(%rbp)
	movl	-44(%rbp), %eax
	cltd
	shrl	$29, %edx
	addl	%edx, %eax
	andl	$7, %eax
	subl	%edx, %eax
	movl	%eax, -20(%rbp)
	movl	-24(%rbp), %eax
	subl	$1, %eax
	movl	%eax, -32(%rbp)
	jmp	.L338
.L339:
	movl	-32(%rbp), %eax
	leal	0(,%rax,8), %edx
	movl	-20(%rbp), %eax
	addl	%eax, %edx
	leaq	-16(%rbp), %rcx
	movq	-40(%rbp), %rax
	movq	%rcx, %rsi
	movq	%rax, %rdi
	call	_ZN5Board7set_bitERyi
	subl	$1, -32(%rbp)
.L338:
	cmpl	$0, -32(%rbp)
	jg	.L339
	movl	-24(%rbp), %eax
	addl	$1, %eax
	movl	%eax, -32(%rbp)
	jmp	.L340
.L341:
	movl	-32(%rbp), %eax
	leal	0(,%rax,8), %edx
	movl	-20(%rbp), %eax
	addl	%eax, %edx
	leaq	-16(%rbp), %rcx
	movq	-40(%rbp), %rax
	movq	%rcx, %rsi
	movq	%rax, %rdi
	call	_ZN5Board7set_bitERyi
	addl	$1, -32(%rbp)
.L340:
	cmpl	$6, -32(%rbp)
	jle	.L341
	movl	-20(%rbp), %eax
	addl	$1, %eax
	movl	%eax, -28(%rbp)
	jmp	.L342
.L343:
	movl	-24(%rbp), %eax
	leal	0(,%rax,8), %edx
	movl	-28(%rbp), %eax
	addl	%eax, %edx
	leaq	-16(%rbp), %rcx
	movq	-40(%rbp), %rax
	movq	%rcx, %rsi
	movq	%rax, %rdi
	call	_ZN5Board7set_bitERyi
	addl	$1, -28(%rbp)
.L342:
	cmpl	$6, -28(%rbp)
	jle	.L343
	movl	-20(%rbp), %eax
	subl	$1, %eax
	movl	%eax, -28(%rbp)
	jmp	.L344
.L345:
	movl	-24(%rbp), %eax
	leal	0(,%rax,8), %edx
	movl	-28(%rbp), %eax
	addl	%eax, %edx
	leaq	-16(%rbp), %rcx
	movq	-40(%rbp), %rax
	movq	%rcx, %rsi
	movq	%rax, %rdi
	call	_ZN5Board7set_bitERyi
	subl	$1, -28(%rbp)
.L344:
	cmpl	$0, -28(%rbp)
	jg	.L345
	movq	-16(%rbp), %rax
	movq	-8(%rbp), %rdx
	subq	%fs:40, %rdx
	je	.L347
	call	__stack_chk_fail@PLT
.L347:
	leave
	.cfi_def_cfa 7, 8
	ret
	.cfi_endproc
.LFE9783:
	.size	_ZN5Board15get_rook_attackEi, .-_ZN5Board15get_rook_attackEi
	.align 2
	.globl	_ZN5Board28get_obstructed_bishop_attackEiy
	.type	_ZN5Board28get_obstructed_bishop_attackEiy, @function
_ZN5Board28get_obstructed_bishop_attackEiy:
.LFB9784:
	.cfi_startproc
	endbr64
	pushq	%rbp
	.cfi_def_cfa_offset 16
	.cfi_offset 6, -16
	movq	%rsp, %rbp
	.cfi_def_cfa_register 6
	subq	$64, %rsp
	movq	%rdi, -40(%rbp)
	movl	%esi, -44(%rbp)
	movq	%rdx, -56(%rbp)
	movq	%fs:40, %rax
	movq	%rax, -8(%rbp)
	xorl	%eax, %eax
	movq	$0, -16(%rbp)
	movl	-44(%rbp), %eax
	leal	7(%rax), %edx
	testl	%eax, %eax
	cmovs	%edx, %eax
	sarl	$3, %eax
	movl	%eax, -24(%rbp)
	movl	-44(%rbp), %eax
	cltd
	shrl	$29, %edx
	addl	%edx, %eax
	andl	$7, %eax
	subl	%edx, %eax
	movl	%eax, -20(%rbp)
	movl	-24(%rbp), %eax
	subl	$1, %eax
	movl	%eax, -32(%rbp)
	movl	-20(%rbp), %eax
	addl	$1, %eax
	movl	%eax, -28(%rbp)
	jmp	.L349
.L352:
	movl	-32(%rbp), %eax
	leal	0(,%rax,8), %edx
	movl	-28(%rbp), %eax
	addl	%eax, %edx
	leaq	-16(%rbp), %rcx
	movq	-40(%rbp), %rax
	movq	%rcx, %rsi
	movq	%rax, %rdi
	call	_ZN5Board7set_bitERyi
	movl	-32(%rbp), %eax
	leal	0(,%rax,8), %edx
	movl	-28(%rbp), %eax
	addl	%eax, %edx
	movq	-56(%rbp), %rcx
	movq	-40(%rbp), %rax
	movq	%rcx, %rsi
	movq	%rax, %rdi
	call	_ZN5Board7get_bitEyi
	testq	%rax, %rax
	setne	%al
	testb	%al, %al
	jne	.L367
	subl	$1, -32(%rbp)
	addl	$1, -28(%rbp)
.L349:
	cmpl	$0, -32(%rbp)
	js	.L351
	cmpl	$7, -28(%rbp)
	jle	.L352
	jmp	.L351
.L367:
	nop
.L351:
	movl	-24(%rbp), %eax
	addl	$1, %eax
	movl	%eax, -32(%rbp)
	movl	-20(%rbp), %eax
	addl	$1, %eax
	movl	%eax, -28(%rbp)
	jmp	.L353
.L356:
	movl	-32(%rbp), %eax
	leal	0(,%rax,8), %edx
	movl	-28(%rbp), %eax
	addl	%eax, %edx
	leaq	-16(%rbp), %rcx
	movq	-40(%rbp), %rax
	movq	%rcx, %rsi
	movq	%rax, %rdi
	call	_ZN5Board7set_bitERyi
	movl	-32(%rbp), %eax
	leal	0(,%rax,8), %edx
	movl	-28(%rbp), %eax
	addl	%eax, %edx
	movq	-56(%rbp), %rcx
	movq	-40(%rbp), %rax
	movq	%rcx, %rsi
	movq	%rax, %rdi
	call	_ZN5Board7get_bitEyi
	testq	%rax, %rax
	setne	%al
	testb	%al, %al
	jne	.L368
	addl	$1, -32(%rbp)
	addl	$1, -28(%rbp)
.L353:
	cmpl	$7, -32(%rbp)
	jg	.L355
	cmpl	$7, -28(%rbp)
	jle	.L356
	jmp	.L355
.L368:
	nop
.L355:
	movl	-24(%rbp), %eax
	addl	$1, %eax
	movl	%eax, -32(%rbp)
	movl	-20(%rbp), %eax
	subl	$1, %eax
	movl	%eax, -28(%rbp)
	jmp	.L357
.L360:
	movl	-32(%rbp), %eax
	leal	0(,%rax,8), %edx
	movl	-28(%rbp), %eax
	addl	%eax, %edx
	leaq	-16(%rbp), %rcx
	movq	-40(%rbp), %rax
	movq	%rcx, %rsi
	movq	%rax, %rdi
	call	_ZN5Board7set_bitERyi
	movl	-32(%rbp), %eax
	leal	0(,%rax,8), %edx
	movl	-28(%rbp), %eax
	addl	%eax, %edx
	movq	-56(%rbp), %rcx
	movq	-40(%rbp), %rax
	movq	%rcx, %rsi
	movq	%rax, %rdi
	call	_ZN5Board7get_bitEyi
	testq	%rax, %rax
	setne	%al
	testb	%al, %al
	jne	.L369
	addl	$1, -32(%rbp)
	subl	$1, -28(%rbp)
.L357:
	cmpl	$7, -32(%rbp)
	jg	.L359
	cmpl	$0, -28(%rbp)
	jns	.L360
	jmp	.L359
.L369:
	nop
.L359:
	movl	-24(%rbp), %eax
	subl	$1, %eax
	movl	%eax, -32(%rbp)
	movl	-20(%rbp), %eax
	subl	$1, %eax
	movl	%eax, -28(%rbp)
	jmp	.L361
.L364:
	movl	-32(%rbp), %eax
	leal	0(,%rax,8), %edx
	movl	-28(%rbp), %eax
	addl	%eax, %edx
	leaq	-16(%rbp), %rcx
	movq	-40(%rbp), %rax
	movq	%rcx, %rsi
	movq	%rax, %rdi
	call	_ZN5Board7set_bitERyi
	movl	-32(%rbp), %eax
	leal	0(,%rax,8), %edx
	movl	-28(%rbp), %eax
	addl	%eax, %edx
	movq	-56(%rbp), %rcx
	movq	-40(%rbp), %rax
	movq	%rcx, %rsi
	movq	%rax, %rdi
	call	_ZN5Board7get_bitEyi
	testq	%rax, %rax
	setne	%al
	testb	%al, %al
	jne	.L370
	subl	$1, -32(%rbp)
	subl	$1, -28(%rbp)
.L361:
	cmpl	$0, -32(%rbp)
	js	.L363
	cmpl	$0, -28(%rbp)
	jns	.L364
	jmp	.L363
.L370:
	nop
.L363:
	movq	-16(%rbp), %rax
	movq	-8(%rbp), %rdx
	subq	%fs:40, %rdx
	je	.L366
	call	__stack_chk_fail@PLT
.L366:
	leave
	.cfi_def_cfa 7, 8
	ret
	.cfi_endproc
.LFE9784:
	.size	_ZN5Board28get_obstructed_bishop_attackEiy, .-_ZN5Board28get_obstructed_bishop_attackEiy
	.align 2
	.globl	_ZN5Board26get_obstructed_rook_attackEiy
	.type	_ZN5Board26get_obstructed_rook_attackEiy, @function
_ZN5Board26get_obstructed_rook_attackEiy:
.LFB9785:
	.cfi_startproc
	endbr64
	pushq	%rbp
	.cfi_def_cfa_offset 16
	.cfi_offset 6, -16
	movq	%rsp, %rbp
	.cfi_def_cfa_register 6
	subq	$64, %rsp
	movq	%rdi, -40(%rbp)
	movl	%esi, -44(%rbp)
	movq	%rdx, -56(%rbp)
	movq	%fs:40, %rax
	movq	%rax, -8(%rbp)
	xorl	%eax, %eax
	movq	$0, -16(%rbp)
	movl	-44(%rbp), %eax
	leal	7(%rax), %edx
	testl	%eax, %eax
	cmovs	%edx, %eax
	sarl	$3, %eax
	movl	%eax, -24(%rbp)
	movl	-44(%rbp), %eax
	cltd
	shrl	$29, %edx
	addl	%edx, %eax
	andl	$7, %eax
	subl	%edx, %eax
	movl	%eax, -20(%rbp)
	movl	-24(%rbp), %eax
	subl	$1, %eax
	movl	%eax, -32(%rbp)
	jmp	.L372
.L375:
	movl	-32(%rbp), %eax
	leal	0(,%rax,8), %edx
	movl	-20(%rbp), %eax
	addl	%eax, %edx
	leaq	-16(%rbp), %rcx
	movq	-40(%rbp), %rax
	movq	%rcx, %rsi
	movq	%rax, %rdi
	call	_ZN5Board7set_bitERyi
	movl	-32(%rbp), %eax
	leal	0(,%rax,8), %edx
	movl	-20(%rbp), %eax
	addl	%eax, %edx
	movq	-56(%rbp), %rcx
	movq	-40(%rbp), %rax
	movq	%rcx, %rsi
	movq	%rax, %rdi
	call	_ZN5Board7get_bitEyi
	testq	%rax, %rax
	setne	%al
	testb	%al, %al
	jne	.L390
	subl	$1, -32(%rbp)
.L372:
	cmpl	$0, -32(%rbp)
	jns	.L375
	jmp	.L374
.L390:
	nop
.L374:
	movl	-24(%rbp), %eax
	addl	$1, %eax
	movl	%eax, -32(%rbp)
	jmp	.L376
.L379:
	movl	-32(%rbp), %eax
	leal	0(,%rax,8), %edx
	movl	-20(%rbp), %eax
	addl	%eax, %edx
	leaq	-16(%rbp), %rcx
	movq	-40(%rbp), %rax
	movq	%rcx, %rsi
	movq	%rax, %rdi
	call	_ZN5Board7set_bitERyi
	movl	-32(%rbp), %eax
	leal	0(,%rax,8), %edx
	movl	-20(%rbp), %eax
	addl	%eax, %edx
	movq	-56(%rbp), %rcx
	movq	-40(%rbp), %rax
	movq	%rcx, %rsi
	movq	%rax, %rdi
	call	_ZN5Board7get_bitEyi
	testq	%rax, %rax
	setne	%al
	testb	%al, %al
	jne	.L391
	addl	$1, -32(%rbp)
.L376:
	cmpl	$7, -32(%rbp)
	jle	.L379
	jmp	.L378
.L391:
	nop
.L378:
	movl	-20(%rbp), %eax
	addl	$1, %eax
	movl	%eax, -28(%rbp)
	jmp	.L380
.L383:
	movl	-24(%rbp), %eax
	leal	0(,%rax,8), %edx
	movl	-28(%rbp), %eax
	addl	%eax, %edx
	leaq	-16(%rbp), %rcx
	movq	-40(%rbp), %rax
	movq	%rcx, %rsi
	movq	%rax, %rdi
	call	_ZN5Board7set_bitERyi
	movl	-24(%rbp), %eax
	leal	0(,%rax,8), %edx
	movl	-28(%rbp), %eax
	addl	%eax, %edx
	movq	-56(%rbp), %rcx
	movq	-40(%rbp), %rax
	movq	%rcx, %rsi
	movq	%rax, %rdi
	call	_ZN5Board7get_bitEyi
	testq	%rax, %rax
	setne	%al
	testb	%al, %al
	jne	.L392
	addl	$1, -28(%rbp)
.L380:
	cmpl	$7, -28(%rbp)
	jle	.L383
	jmp	.L382
.L392:
	nop
.L382:
	movl	-20(%rbp), %eax
	subl	$1, %eax
	movl	%eax, -28(%rbp)
	jmp	.L384
.L387:
	movl	-24(%rbp), %eax
	leal	0(,%rax,8), %edx
	movl	-28(%rbp), %eax
	addl	%eax, %edx
	leaq	-16(%rbp), %rcx
	movq	-40(%rbp), %rax
	movq	%rcx, %rsi
	movq	%rax, %rdi
	call	_ZN5Board7set_bitERyi
	movl	-24(%rbp), %eax
	leal	0(,%rax,8), %edx
	movl	-28(%rbp), %eax
	addl	%eax, %edx
	movq	-56(%rbp), %rcx
	movq	-40(%rbp), %rax
	movq	%rcx, %rsi
	movq	%rax, %rdi
	call	_ZN5Board7get_bitEyi
	testq	%rax, %rax
	setne	%al
	testb	%al, %al
	jne	.L393
	subl	$1, -28(%rbp)
.L384:
	cmpl	$0, -28(%rbp)
	jns	.L387
	jmp	.L386
.L393:
	nop
.L386:
	movq	-16(%rbp), %rax
	movq	-8(%rbp), %rdx
	subq	%fs:40, %rdx
	je	.L389
	call	__stack_chk_fail@PLT
.L389:
	leave
	.cfi_def_cfa 7, 8
	ret
	.cfi_endproc
.LFE9785:
	.size	_ZN5Board26get_obstructed_rook_attackEiy, .-_ZN5Board26get_obstructed_rook_attackEiy
	.align 2
	.globl	_ZN5Board19get_leaping_attacksEv
	.type	_ZN5Board19get_leaping_attacksEv, @function
_ZN5Board19get_leaping_attacksEv:
.LFB9786:
	.cfi_startproc
	endbr64
	pushq	%rbp
	.cfi_def_cfa_offset 16
	.cfi_offset 6, -16
	movq	%rsp, %rbp
	.cfi_def_cfa_register 6
	pushq	%rbx
	subq	$56, %rsp
	.cfi_offset 3, -24
	movq	%rdi, -56(%rbp)
	movq	%fs:40, %rax
	movq	%rax, -24(%rbp)
	xorl	%eax, %eax
	movl	$0, -36(%rbp)
	jmp	.L395
.L396:
	movq	-56(%rbp), %rax
	leaq	216(%rax), %rbx
	movl	-36(%rbp), %edx
	movq	-56(%rbp), %rax
	movl	%edx, %esi
	movq	%rax, %rdi
	call	_ZN5Board17get_knight_attackEi
	movq	%rax, -32(%rbp)
	leaq	-32(%rbp), %rax
	movq	%rax, %rsi
	movq	%rbx, %rdi
	call	_ZNSt6vectorIySaIyEE9push_backEOy
	movq	-56(%rbp), %rax
	leaq	240(%rax), %rbx
	movl	-36(%rbp), %edx
	movq	-56(%rbp), %rax
	movl	%edx, %esi
	movq	%rax, %rdi
	call	_ZN5Board15get_king_attackEi
	movq	%rax, -32(%rbp)
	leaq	-32(%rbp), %rax
	movq	%rax, %rsi
	movq	%rbx, %rdi
	call	_ZNSt6vectorIySaIyEE9push_backEOy
	movl	-36(%rbp), %ecx
	movq	-56(%rbp), %rax
	movl	$0, %edx
	movl	%ecx, %esi
	movq	%rax, %rdi
	call	_ZN5Board15get_pawn_attackEii
	movq	-56(%rbp), %rdx
	movl	-36(%rbp), %ecx
	movslq	%ecx, %rcx
	addq	$32, %rcx
	movq	%rax, 8(%rdx,%rcx,8)
	movl	-36(%rbp), %ecx
	movq	-56(%rbp), %rax
	movl	$1, %edx
	movl	%ecx, %esi
	movq	%rax, %rdi
	call	_ZN5Board15get_pawn_attackEii
	movq	-56(%rbp), %rdx
	movl	-36(%rbp), %ecx
	movslq	%ecx, %rcx
	addq	$96, %rcx
	movq	%rax, 8(%rdx,%rcx,8)
	addl	$1, -36(%rbp)
.L395:
	cmpl	$63, -36(%rbp)
	jle	.L396
	nop
	movq	-24(%rbp), %rax
	subq	%fs:40, %rax
	je	.L397
	call	__stack_chk_fail@PLT
.L397:
	movq	-8(%rbp), %rbx
	leave
	.cfi_def_cfa 7, 8
	ret
	.cfi_endproc
.LFE9786:
	.size	_ZN5Board19get_leaping_attacksEv, .-_ZN5Board19get_leaping_attacksEv
	.section	.rodata
	.align 8
.LC79:
	.string	"int Board::get_lsb_index(Board::U64)"
.LC80:
	.string	"Board.cpp"
.LC81:
	.string	"board != 0"
	.section	.text._ZN5Board13get_lsb_indexEy,"axG",@progbits,_ZN5Board13get_lsb_indexEy,comdat
	.align 2
	.weak	_ZN5Board13get_lsb_indexEy
	.type	_ZN5Board13get_lsb_indexEy, @function
_ZN5Board13get_lsb_indexEy:
.LFB9787:
	.cfi_startproc
	endbr64
	pushq	%rbp
	.cfi_def_cfa_offset 16
	.cfi_offset 6, -16
	movq	%rsp, %rbp
	.cfi_def_cfa_register 6
	subq	$32, %rsp
	movq	%rdi, -24(%rbp)
	movq	%rsi, -32(%rbp)
	movabsq	$285870213051386505, %rax
	movq	%rax, -8(%rbp)
	cmpq	$0, -32(%rbp)
	jne	.L399
	leaq	.LC79(%rip), %rax
	movq	%rax, %rcx
	movl	$451, %edx
	leaq	.LC80(%rip), %rax
	movq	%rax, %rsi
	leaq	.LC81(%rip), %rax
	movq	%rax, %rdi
	call	__assert_fail@PLT
.L399:
	movq	-32(%rbp), %rax
	subq	$1, %rax
	xorq	-32(%rbp), %rax
	movabsq	$285870213051386505, %rdx
	imulq	%rdx, %rax
	shrq	$58, %rax
	movq	%rax, %rdx
	movq	-24(%rbp), %rax
	addq	$590400, %rdx
	movl	8(%rax,%rdx,4), %eax
	leave
	.cfi_def_cfa 7, 8
	ret
	.cfi_endproc
.LFE9787:
	.size	_ZN5Board13get_lsb_indexEy, .-_ZN5Board13get_lsb_indexEy
	.text
	.align 2
	.globl	_ZN5Board13set_occupancyEiiy
	.type	_ZN5Board13set_occupancyEiiy, @function
_ZN5Board13set_occupancyEiiy:
.LFB9788:
	.cfi_startproc
	endbr64
	pushq	%rbp
	.cfi_def_cfa_offset 16
	.cfi_offset 6, -16
	movq	%rsp, %rbp
	.cfi_def_cfa_register 6
	subq	$64, %rsp
	movq	%rdi, -40(%rbp)
	movl	%esi, -44(%rbp)
	movl	%edx, -48(%rbp)
	movq	%rcx, -56(%rbp)
	movq	%fs:40, %rax
	movq	%rax, -8(%rbp)
	xorl	%eax, %eax
	movq	$0, -16(%rbp)
	movl	$0, -24(%rbp)
	jmp	.L402
.L404:
	movq	-56(%rbp), %rdx
	movq	-40(%rbp), %rax
	movq	%rdx, %rsi
	movq	%rax, %rdi
	call	_ZN5Board13get_lsb_indexEy
	movl	%eax, -20(%rbp)
	movl	-20(%rbp), %edx
	leaq	-56(%rbp), %rcx
	movq	-40(%rbp), %rax
	movq	%rcx, %rsi
	movq	%rax, %rdi
	call	_ZN5Board10remove_bitERyi
	movl	-44(%rbp), %eax
	movslq	%eax, %rcx
	movl	-24(%rbp), %edx
	movq	-40(%rbp), %rax
	movq	%rcx, %rsi
	movq	%rax, %rdi
	call	_ZN5Board7get_bitEyi
	testq	%rax, %rax
	setne	%al
	testb	%al, %al
	je	.L403
	movl	-20(%rbp), %edx
	leaq	-16(%rbp), %rcx
	movq	-40(%rbp), %rax
	movq	%rcx, %rsi
	movq	%rax, %rdi
	call	_ZN5Board7set_bitERyi
.L403:
	addl	$1, -24(%rbp)
.L402:
	movl	-24(%rbp), %eax
	cmpl	-48(%rbp), %eax
	jl	.L404
	movq	-16(%rbp), %rax
	movq	-8(%rbp), %rdx
	subq	%fs:40, %rdx
	je	.L406
	call	__stack_chk_fail@PLT
.L406:
	leave
	.cfi_def_cfa 7, 8
	ret
	.cfi_endproc
.LFE9788:
	.size	_ZN5Board13set_occupancyEiiy, .-_ZN5Board13set_occupancyEiiy
	.align 2
	.globl	_ZN5Board27populate_attack_mask_arraysEv
	.type	_ZN5Board27populate_attack_mask_arraysEv, @function
_ZN5Board27populate_attack_mask_arraysEv:
.LFB9789:
	.cfi_startproc
	endbr64
	pushq	%rbp
	.cfi_def_cfa_offset 16
	.cfi_offset 6, -16
	movq	%rsp, %rbp
	.cfi_def_cfa_register 6
	subq	$96, %rsp
	movq	%rdi, -88(%rbp)
	movl	$0, -68(%rbp)
	jmp	.L408
.L413:
	movl	-68(%rbp), %edx
	movq	-88(%rbp), %rax
	movl	%edx, %esi
	movq	%rax, %rdi
	call	_ZN5Board15get_rook_attackEi
	movq	%rax, -32(%rbp)
	movl	-68(%rbp), %edx
	movq	-88(%rbp), %rax
	movl	%edx, %esi
	movq	%rax, %rdi
	call	_ZN5Board17get_bishop_attackEi
	movq	%rax, -24(%rbp)
	movq	-88(%rbp), %rax
	movl	-68(%rbp), %edx
	movslq	%edx, %rdx
	leaq	160(%rdx), %rcx
	movq	-24(%rbp), %rdx
	movq	%rdx, 8(%rax,%rcx,8)
	movq	-88(%rbp), %rax
	movl	-68(%rbp), %edx
	movslq	%edx, %rdx
	leaq	224(%rdx), %rcx
	movq	-32(%rbp), %rdx
	movq	%rdx, 8(%rax,%rcx,8)
	movq	-24(%rbp), %rax
	movq	%rax, %rdi
	call	_ZSt10__popcountIyEiT_
	movl	%eax, -56(%rbp)
	movq	-32(%rbp), %rax
	movq	%rax, %rdi
	call	_ZSt10__popcountIyEiT_
	movl	%eax, -52(%rbp)
	movl	-56(%rbp), %eax
	movl	$1, %edx
	movl	%eax, %ecx
	sall	%cl, %edx
	movl	%edx, %eax
	movl	%eax, -48(%rbp)
	movl	-52(%rbp), %eax
	movl	$1, %edx
	movl	%eax, %ecx
	sall	%cl, %edx
	movl	%edx, %eax
	movl	%eax, -44(%rbp)
	movl	$0, -64(%rbp)
	jmp	.L409
.L410:
	movq	-24(%rbp), %rcx
	movl	-56(%rbp), %edx
	movl	-64(%rbp), %esi
	movq	-88(%rbp), %rax
	movq	%rax, %rdi
	call	_ZN5Board13set_occupancyEiiy
	movq	%rax, -8(%rbp)
	movq	-88(%rbp), %rax
	leaq	2361888(%rax), %rdx
	movl	-68(%rbp), %eax
	cltq
	movq	%rax, %rsi
	movq	%rdx, %rdi
	call	_ZNSt6vectorIySaIyEEixEm
	movq	(%rax), %rax
	imulq	-8(%rbp), %rax
	movq	%rax, %rdx
	movl	$64, %eax
	subl	-56(%rbp), %eax
	movl	%eax, %ecx
	salq	%cl, %rdx
	movq	%rdx, %rax
	movl	%eax, -36(%rbp)
	movq	-8(%rbp), %rdx
	movl	-68(%rbp), %ecx
	movq	-88(%rbp), %rax
	movl	%ecx, %esi
	movq	%rax, %rdi
	call	_ZN5Board28get_obstructed_bishop_attackEiy
	movq	-88(%rbp), %rdx
	movl	-36(%rbp), %ecx
	movslq	%ecx, %rsi
	movl	-68(%rbp), %ecx
	movslq	%ecx, %rcx
	salq	$9, %rcx
	addq	%rsi, %rcx
	addq	$288, %rcx
	movq	%rax, 8(%rdx,%rcx,8)
	addl	$1, -64(%rbp)
.L409:
	movl	-64(%rbp), %eax
	cmpl	-48(%rbp), %eax
	jl	.L410
	movl	$0, -60(%rbp)
	jmp	.L411
.L412:
	movq	-32(%rbp), %rcx
	movl	-52(%rbp), %edx
	movl	-60(%rbp), %esi
	movq	-88(%rbp), %rax
	movq	%rax, %rdi
	call	_ZN5Board13set_occupancyEiiy
	movq	%rax, -16(%rbp)
	movq	-88(%rbp), %rax
	leaq	2361864(%rax), %rdx
	movl	-68(%rbp), %eax
	cltq
	movq	%rax, %rsi
	movq	%rdx, %rdi
	call	_ZNSt6vectorIySaIyEEixEm
	movq	(%rax), %rax
	imulq	-16(%rbp), %rax
	movq	%rax, %rdx
	movl	$64, %eax
	subl	-52(%rbp), %eax
	movl	%eax, %ecx
	salq	%cl, %rdx
	movq	%rdx, %rax
	movl	%eax, -40(%rbp)
	movq	-16(%rbp), %rdx
	movl	-68(%rbp), %ecx
	movq	-88(%rbp), %rax
	movl	%ecx, %esi
	movq	%rax, %rdi
	call	_ZN5Board26get_obstructed_rook_attackEiy
	movq	-88(%rbp), %rdx
	movl	-40(%rbp), %ecx
	movslq	%ecx, %rsi
	movl	-68(%rbp), %ecx
	movslq	%ecx, %rcx
	salq	$12, %rcx
	addq	%rsi, %rcx
	addq	$33056, %rcx
	movq	%rax, 8(%rdx,%rcx,8)
	addl	$1, -60(%rbp)
.L411:
	movl	-60(%rbp), %eax
	cmpl	-44(%rbp), %eax
	jl	.L412
	addl	$1, -68(%rbp)
.L408:
	cmpl	$63, -68(%rbp)
	jle	.L413
	nop
	nop
	leave
	.cfi_def_cfa 7, 8
	ret
	.cfi_endproc
.LFE9789:
	.size	_ZN5Board27populate_attack_mask_arraysEv, .-_ZN5Board27populate_attack_mask_arraysEv
	.align 2
	.globl	_ZN5Board17get_bishop_attackEyi
	.type	_ZN5Board17get_bishop_attackEyi, @function
_ZN5Board17get_bishop_attackEyi:
.LFB9790:
	.cfi_startproc
	endbr64
	pushq	%rbp
	.cfi_def_cfa_offset 16
	.cfi_offset 6, -16
	movq	%rsp, %rbp
	.cfi_def_cfa_register 6
	subq	$32, %rsp
	movq	%rdi, -8(%rbp)
	movq	%rsi, -16(%rbp)
	movl	%edx, -20(%rbp)
	movq	-8(%rbp), %rax
	movl	-20(%rbp), %edx
	movslq	%edx, %rdx
	addq	$160, %rdx
	movq	8(%rax,%rdx,8), %rax
	andq	%rax, -16(%rbp)
	movq	-8(%rbp), %rax
	leaq	2361888(%rax), %rdx
	movl	-20(%rbp), %eax
	cltq
	movq	%rax, %rsi
	movq	%rdx, %rdi
	call	_ZNSt6vectorIySaIyEEixEm
	movq	(%rax), %rax
	movq	-16(%rbp), %rdx
	imulq	%rdx, %rax
	movq	%rax, -16(%rbp)
	movq	-8(%rbp), %rax
	movl	-20(%rbp), %edx
	movslq	%edx, %rdx
	addq	$160, %rdx
	movq	8(%rax,%rdx,8), %rax
	movq	%rax, %rdi
	call	_ZSt10__popcountIyEiT_
	movl	%eax, %edx
	movl	$64, %eax
	subl	%edx, %eax
	movl	%eax, %ecx
	shrq	%cl, -16(%rbp)
	movq	-8(%rbp), %rax
	movl	-20(%rbp), %edx
	movslq	%edx, %rdx
	movq	%rdx, %rcx
	salq	$9, %rcx
	movq	-16(%rbp), %rdx
	addq	%rcx, %rdx
	addq	$288, %rdx
	movq	8(%rax,%rdx,8), %rax
	leave
	.cfi_def_cfa 7, 8
	ret
	.cfi_endproc
.LFE9790:
	.size	_ZN5Board17get_bishop_attackEyi, .-_ZN5Board17get_bishop_attackEyi
	.align 2
	.globl	_ZN5Board15get_rook_attackEyi
	.type	_ZN5Board15get_rook_attackEyi, @function
_ZN5Board15get_rook_attackEyi:
.LFB9791:
	.cfi_startproc
	endbr64
	pushq	%rbp
	.cfi_def_cfa_offset 16
	.cfi_offset 6, -16
	movq	%rsp, %rbp
	.cfi_def_cfa_register 6
	subq	$32, %rsp
	movq	%rdi, -8(%rbp)
	movq	%rsi, -16(%rbp)
	movl	%edx, -20(%rbp)
	movq	-8(%rbp), %rax
	movl	-20(%rbp), %edx
	movslq	%edx, %rdx
	addq	$224, %rdx
	movq	8(%rax,%rdx,8), %rax
	andq	%rax, -16(%rbp)
	movq	-8(%rbp), %rax
	leaq	2361864(%rax), %rdx
	movl	-20(%rbp), %eax
	cltq
	movq	%rax, %rsi
	movq	%rdx, %rdi
	call	_ZNSt6vectorIySaIyEEixEm
	movq	(%rax), %rax
	movq	-16(%rbp), %rdx
	imulq	%rdx, %rax
	movq	%rax, -16(%rbp)
	movq	-8(%rbp), %rax
	movl	-20(%rbp), %edx
	movslq	%edx, %rdx
	addq	$224, %rdx
	movq	8(%rax,%rdx,8), %rax
	movq	%rax, %rdi
	call	_ZSt10__popcountIyEiT_
	movl	%eax, %edx
	movl	$64, %eax
	subl	%edx, %eax
	movl	%eax, %ecx
	shrq	%cl, -16(%rbp)
	movq	-8(%rbp), %rax
	movl	-20(%rbp), %edx
	movslq	%edx, %rdx
	movq	%rdx, %rcx
	salq	$12, %rcx
	movq	-16(%rbp), %rdx
	addq	%rcx, %rdx
	addq	$33056, %rdx
	movq	8(%rax,%rdx,8), %rax
	leave
	.cfi_def_cfa 7, 8
	ret
	.cfi_endproc
.LFE9791:
	.size	_ZN5Board15get_rook_attackEyi, .-_ZN5Board15get_rook_attackEyi
	.align 2
	.globl	_ZN5Board16get_queen_attackEiy
	.type	_ZN5Board16get_queen_attackEiy, @function
_ZN5Board16get_queen_attackEiy:
.LFB9792:
	.cfi_startproc
	endbr64
	pushq	%rbp
	.cfi_def_cfa_offset 16
	.cfi_offset 6, -16
	movq	%rsp, %rbp
	.cfi_def_cfa_register 6
	subq	$48, %rsp
	movq	%rdi, -24(%rbp)
	movl	%esi, -28(%rbp)
	movq	%rdx, -40(%rbp)
	movq	-40(%rbp), %rdx
	movl	-28(%rbp), %ecx
	movq	-24(%rbp), %rax
	movl	%ecx, %esi
	movq	%rax, %rdi
	call	_ZN5Board28get_obstructed_bishop_attackEiy
	movq	%rax, -16(%rbp)
	movq	-40(%rbp), %rdx
	movl	-28(%rbp), %ecx
	movq	-24(%rbp), %rax
	movl	%ecx, %esi
	movq	%rax, %rdi
	call	_ZN5Board26get_obstructed_rook_attackEiy
	movq	%rax, -8(%rbp)
	movq	-16(%rbp), %rax
	orq	-8(%rbp), %rax
	leave
	.cfi_def_cfa 7, 8
	ret
	.cfi_endproc
.LFE9792:
	.size	_ZN5Board16get_queen_attackEiy, .-_ZN5Board16get_queen_attackEiy
	.align 2
	.globl	_ZN5Board18is_square_attackedEii
	.type	_ZN5Board18is_square_attackedEii, @function
_ZN5Board18is_square_attackedEii:
.LFB9793:
	.cfi_startproc
	endbr64
	pushq	%rbp
	.cfi_def_cfa_offset 16
	.cfi_offset 6, -16
	movq	%rsp, %rbp
	.cfi_def_cfa_register 6
	pushq	%rbx
	subq	$40, %rsp
	.cfi_offset 3, -24
	movq	%rdi, -40(%rbp)
	movl	%esi, -44(%rbp)
	movl	%edx, -48(%rbp)
	movq	%fs:40, %rax
	movq	%rax, -24(%rbp)
	xorl	%eax, %eax
	cmpl	$0, -48(%rbp)
	jne	.L421
	movq	-40(%rbp), %rax
	movl	-44(%rbp), %edx
	movslq	%edx, %rdx
	addq	$96, %rdx
	movq	8(%rax,%rdx,8), %rbx
	movq	-40(%rbp), %rax
	leaq	120(%rax), %rdx
	movb	$80, -25(%rbp)
	leaq	-25(%rbp), %rax
	movq	%rax, %rsi
	movq	%rdx, %rdi
	call	_ZNSt3mapIcySt4lessIcESaISt4pairIKcyEEEixEOc
	movq	(%rax), %rax
	andq	%rbx, %rax
	testq	%rax, %rax
	je	.L421
	movl	$1, %eax
	jmp	.L422
.L421:
	movl	$0, %eax
.L422:
	testb	%al, %al
	je	.L423
	movl	$1, %eax
	jmp	.L424
.L423:
	cmpl	$0, -48(%rbp)
	je	.L425
	movq	-40(%rbp), %rax
	movl	-44(%rbp), %edx
	movslq	%edx, %rdx
	addq	$32, %rdx
	movq	8(%rax,%rdx,8), %rbx
	movq	-40(%rbp), %rax
	leaq	120(%rax), %rdx
	movb	$112, -25(%rbp)
	leaq	-25(%rbp), %rax
	movq	%rax, %rsi
	movq	%rdx, %rdi
	call	_ZNSt3mapIcySt4lessIcESaISt4pairIKcyEEEixEOc
	movq	(%rax), %rax
	andq	%rbx, %rax
	testq	%rax, %rax
	je	.L425
	movl	$1, %eax
	jmp	.L426
.L425:
	movl	$0, %eax
.L426:
	testb	%al, %al
	je	.L427
	movl	$1, %eax
	jmp	.L424
.L427:
	cmpl	$0, -48(%rbp)
	jne	.L428
	movq	-40(%rbp), %rax
	leaq	216(%rax), %rdx
	movl	-44(%rbp), %eax
	cltq
	movq	%rax, %rsi
	movq	%rdx, %rdi
	call	_ZNSt6vectorIySaIyEEixEm
	movq	(%rax), %rbx
	movq	-40(%rbp), %rax
	leaq	120(%rax), %rdx
	movb	$78, -25(%rbp)
	leaq	-25(%rbp), %rax
	movq	%rax, %rsi
	movq	%rdx, %rdi
	call	_ZNSt3mapIcySt4lessIcESaISt4pairIKcyEEEixEOc
	movq	(%rax), %rax
	andq	%rbx, %rax
	testq	%rax, %rax
	je	.L428
	movl	$1, %eax
	jmp	.L429
.L428:
	movl	$0, %eax
.L429:
	testb	%al, %al
	je	.L430
	movl	$1, %eax
	jmp	.L424
.L430:
	cmpl	$0, -48(%rbp)
	je	.L431
	movq	-40(%rbp), %rax
	leaq	216(%rax), %rdx
	movl	-44(%rbp), %eax
	cltq
	movq	%rax, %rsi
	movq	%rdx, %rdi
	call	_ZNSt6vectorIySaIyEEixEm
	movq	(%rax), %rbx
	movq	-40(%rbp), %rax
	leaq	120(%rax), %rdx
	movb	$110, -25(%rbp)
	leaq	-25(%rbp), %rax
	movq	%rax, %rsi
	movq	%rdx, %rdi
	call	_ZNSt3mapIcySt4lessIcESaISt4pairIKcyEEEixEOc
	movq	(%rax), %rax
	andq	%rbx, %rax
	testq	%rax, %rax
	je	.L431
	movl	$1, %eax
	jmp	.L432
.L431:
	movl	$0, %eax
.L432:
	testb	%al, %al
	je	.L433
	movl	$1, %eax
	jmp	.L424
.L433:
	cmpl	$0, -48(%rbp)
	jne	.L434
	movq	-40(%rbp), %rax
	leaq	120(%rax), %rdx
	movb	$65, -26(%rbp)
	leaq	-26(%rbp), %rax
	movq	%rax, %rsi
	movq	%rdx, %rdi
	call	_ZNSt3mapIcySt4lessIcESaISt4pairIKcyEEEixEOc
	movq	(%rax), %rdx
	movl	-44(%rbp), %ecx
	movq	-40(%rbp), %rax
	movl	%ecx, %esi
	movq	%rax, %rdi
	call	_ZN5Board28get_obstructed_bishop_attackEiy
	movq	%rax, %rbx
	movq	-40(%rbp), %rax
	leaq	120(%rax), %rdx
	movb	$66, -25(%rbp)
	leaq	-25(%rbp), %rax
	movq	%rax, %rsi
	movq	%rdx, %rdi
	call	_ZNSt3mapIcySt4lessIcESaISt4pairIKcyEEEixEOc
	movq	(%rax), %rax
	andq	%rbx, %rax
	testq	%rax, %rax
	je	.L434
	movl	$1, %eax
	jmp	.L435
.L434:
	movl	$0, %eax
.L435:
	testb	%al, %al
	je	.L436
	movl	$1, %eax
	jmp	.L424
.L436:
	cmpl	$0, -48(%rbp)
	je	.L437
	movq	-40(%rbp), %rax
	leaq	120(%rax), %rdx
	movb	$65, -26(%rbp)
	leaq	-26(%rbp), %rax
	movq	%rax, %rsi
	movq	%rdx, %rdi
	call	_ZNSt3mapIcySt4lessIcESaISt4pairIKcyEEEixEOc
	movq	(%rax), %rdx
	movl	-44(%rbp), %ecx
	movq	-40(%rbp), %rax
	movl	%ecx, %esi
	movq	%rax, %rdi
	call	_ZN5Board28get_obstructed_bishop_attackEiy
	movq	%rax, %rbx
	movq	-40(%rbp), %rax
	leaq	120(%rax), %rdx
	movb	$98, -25(%rbp)
	leaq	-25(%rbp), %rax
	movq	%rax, %rsi
	movq	%rdx, %rdi
	call	_ZNSt3mapIcySt4lessIcESaISt4pairIKcyEEEixEOc
	movq	(%rax), %rax
	andq	%rbx, %rax
	testq	%rax, %rax
	je	.L437
	movl	$1, %eax
	jmp	.L438
.L437:
	movl	$0, %eax
.L438:
	testb	%al, %al
	je	.L439
	movl	$1, %eax
	jmp	.L424
.L439:
	cmpl	$0, -48(%rbp)
	jne	.L440
	movq	-40(%rbp), %rax
	leaq	120(%rax), %rdx
	movb	$65, -26(%rbp)
	leaq	-26(%rbp), %rax
	movq	%rax, %rsi
	movq	%rdx, %rdi
	call	_ZNSt3mapIcySt4lessIcESaISt4pairIKcyEEEixEOc
	movq	(%rax), %rdx
	movl	-44(%rbp), %ecx
	movq	-40(%rbp), %rax
	movl	%ecx, %esi
	movq	%rax, %rdi
	call	_ZN5Board26get_obstructed_rook_attackEiy
	movq	%rax, %rbx
	movq	-40(%rbp), %rax
	leaq	120(%rax), %rdx
	movb	$82, -25(%rbp)
	leaq	-25(%rbp), %rax
	movq	%rax, %rsi
	movq	%rdx, %rdi
	call	_ZNSt3mapIcySt4lessIcESaISt4pairIKcyEEEixEOc
	movq	(%rax), %rax
	andq	%rbx, %rax
	testq	%rax, %rax
	je	.L440
	movl	$1, %eax
	jmp	.L441
.L440:
	movl	$0, %eax
.L441:
	testb	%al, %al
	je	.L442
	movl	$1, %eax
	jmp	.L424
.L442:
	cmpl	$0, -48(%rbp)
	je	.L443
	movq	-40(%rbp), %rax
	leaq	120(%rax), %rdx
	movb	$65, -26(%rbp)
	leaq	-26(%rbp), %rax
	movq	%rax, %rsi
	movq	%rdx, %rdi
	call	_ZNSt3mapIcySt4lessIcESaISt4pairIKcyEEEixEOc
	movq	(%rax), %rdx
	movl	-44(%rbp), %ecx
	movq	-40(%rbp), %rax
	movl	%ecx, %esi
	movq	%rax, %rdi
	call	_ZN5Board26get_obstructed_rook_attackEiy
	movq	%rax, %rbx
	movq	-40(%rbp), %rax
	leaq	120(%rax), %rdx
	movb	$114, -25(%rbp)
	leaq	-25(%rbp), %rax
	movq	%rax, %rsi
	movq	%rdx, %rdi
	call	_ZNSt3mapIcySt4lessIcESaISt4pairIKcyEEEixEOc
	movq	(%rax), %rax
	andq	%rbx, %rax
	testq	%rax, %rax
	je	.L443
	movl	$1, %eax
	jmp	.L444
.L443:
	movl	$0, %eax
.L444:
	testb	%al, %al
	je	.L445
	movl	$1, %eax
	jmp	.L424
.L445:
	cmpl	$0, -48(%rbp)
	jne	.L446
	movq	-40(%rbp), %rax
	leaq	120(%rax), %rdx
	movb	$65, -26(%rbp)
	leaq	-26(%rbp), %rax
	movq	%rax, %rsi
	movq	%rdx, %rdi
	call	_ZNSt3mapIcySt4lessIcESaISt4pairIKcyEEEixEOc
	movq	(%rax), %rdx
	movl	-44(%rbp), %ecx
	movq	-40(%rbp), %rax
	movl	%ecx, %esi
	movq	%rax, %rdi
	call	_ZN5Board16get_queen_attackEiy
	movq	%rax, %rbx
	movq	-40(%rbp), %rax
	leaq	120(%rax), %rdx
	movb	$81, -25(%rbp)
	leaq	-25(%rbp), %rax
	movq	%rax, %rsi
	movq	%rdx, %rdi
	call	_ZNSt3mapIcySt4lessIcESaISt4pairIKcyEEEixEOc
	movq	(%rax), %rax
	andq	%rbx, %rax
	testq	%rax, %rax
	je	.L446
	movl	$1, %eax
	jmp	.L447
.L446:
	movl	$0, %eax
.L447:
	testb	%al, %al
	je	.L448
	movl	$1, %eax
	jmp	.L424
.L448:
	cmpl	$0, -48(%rbp)
	je	.L449
	movq	-40(%rbp), %rax
	leaq	120(%rax), %rdx
	movb	$65, -26(%rbp)
	leaq	-26(%rbp), %rax
	movq	%rax, %rsi
	movq	%rdx, %rdi
	call	_ZNSt3mapIcySt4lessIcESaISt4pairIKcyEEEixEOc
	movq	(%rax), %rdx
	movl	-44(%rbp), %ecx
	movq	-40(%rbp), %rax
	movl	%ecx, %esi
	movq	%rax, %rdi
	call	_ZN5Board16get_queen_attackEiy
	movq	%rax, %rbx
	movq	-40(%rbp), %rax
	leaq	120(%rax), %rdx
	movb	$113, -25(%rbp)
	leaq	-25(%rbp), %rax
	movq	%rax, %rsi
	movq	%rdx, %rdi
	call	_ZNSt3mapIcySt4lessIcESaISt4pairIKcyEEEixEOc
	movq	(%rax), %rax
	andq	%rbx, %rax
	testq	%rax, %rax
	je	.L449
	movl	$1, %eax
	jmp	.L450
.L449:
	movl	$0, %eax
.L450:
	testb	%al, %al
	je	.L451
	movl	$1, %eax
	jmp	.L424
.L451:
	cmpl	$0, -48(%rbp)
	jne	.L452
	movq	-40(%rbp), %rax
	leaq	240(%rax), %rdx
	movl	-44(%rbp), %eax
	cltq
	movq	%rax, %rsi
	movq	%rdx, %rdi
	call	_ZNSt6vectorIySaIyEEixEm
	movq	(%rax), %rbx
	movq	-40(%rbp), %rax
	leaq	120(%rax), %rdx
	movb	$75, -25(%rbp)
	leaq	-25(%rbp), %rax
	movq	%rax, %rsi
	movq	%rdx, %rdi
	call	_ZNSt3mapIcySt4lessIcESaISt4pairIKcyEEEixEOc
	movq	(%rax), %rax
	andq	%rbx, %rax
	testq	%rax, %rax
	je	.L452
	movl	$1, %eax
	jmp	.L453
.L452:
	movl	$0, %eax
.L453:
	testb	%al, %al
	je	.L454
	movl	$1, %eax
	jmp	.L424
.L454:
	cmpl	$0, -48(%rbp)
	je	.L455
	movq	-40(%rbp), %rax
	leaq	240(%rax), %rdx
	movl	-44(%rbp), %eax
	cltq
	movq	%rax, %rsi
	movq	%rdx, %rdi
	call	_ZNSt6vectorIySaIyEEixEm
	movq	(%rax), %rbx
	movq	-40(%rbp), %rax
	leaq	120(%rax), %rdx
	movb	$107, -25(%rbp)
	leaq	-25(%rbp), %rax
	movq	%rax, %rsi
	movq	%rdx, %rdi
	call	_ZNSt3mapIcySt4lessIcESaISt4pairIKcyEEEixEOc
	movq	(%rax), %rax
	andq	%rbx, %rax
	testq	%rax, %rax
	je	.L455
	movl	$1, %eax
	jmp	.L456
.L455:
	movl	$0, %eax
.L456:
	testb	%al, %al
	je	.L457
	movl	$1, %eax
	jmp	.L424
.L457:
	movl	$0, %eax
.L424:
	movq	-24(%rbp), %rdx
	subq	%fs:40, %rdx
	je	.L458
	call	__stack_chk_fail@PLT
.L458:
	movq	-8(%rbp), %rbx
	leave
	.cfi_def_cfa 7, 8
	ret
	.cfi_endproc
.LFE9793:
	.size	_ZN5Board18is_square_attackedEii, .-_ZN5Board18is_square_attackedEii
	.section	.text._ZNSt12_Vector_baseIiSaIiEE12_Vector_implD2Ev,"axG",@progbits,_ZNSt12_Vector_baseIiSaIiEE12_Vector_implD5Ev,comdat
	.align 2
	.weak	_ZNSt12_Vector_baseIiSaIiEE12_Vector_implD2Ev
	.type	_ZNSt12_Vector_baseIiSaIiEE12_Vector_implD2Ev, @function
_ZNSt12_Vector_baseIiSaIiEE12_Vector_implD2Ev:
.LFB9798:
	.cfi_startproc
	endbr64
	pushq	%rbp
	.cfi_def_cfa_offset 16
	.cfi_offset 6, -16
	movq	%rsp, %rbp
	.cfi_def_cfa_register 6
	subq	$16, %rsp
	movq	%rdi, -8(%rbp)
	movq	-8(%rbp), %rax
	movq	%rax, %rdi
	call	_ZNSaIiED2Ev
	nop
	leave
	.cfi_def_cfa 7, 8
	ret
	.cfi_endproc
.LFE9798:
	.size	_ZNSt12_Vector_baseIiSaIiEE12_Vector_implD2Ev, .-_ZNSt12_Vector_baseIiSaIiEE12_Vector_implD2Ev
	.weak	_ZNSt12_Vector_baseIiSaIiEE12_Vector_implD1Ev
	.set	_ZNSt12_Vector_baseIiSaIiEE12_Vector_implD1Ev,_ZNSt12_Vector_baseIiSaIiEE12_Vector_implD2Ev
	.section	.text._ZNSt12_Vector_baseIiSaIiEEC2Ev,"axG",@progbits,_ZNSt12_Vector_baseIiSaIiEEC5Ev,comdat
	.align 2
	.weak	_ZNSt12_Vector_baseIiSaIiEEC2Ev
	.type	_ZNSt12_Vector_baseIiSaIiEEC2Ev, @function
_ZNSt12_Vector_baseIiSaIiEEC2Ev:
.LFB9800:
	.cfi_startproc
	endbr64
	pushq	%rbp
	.cfi_def_cfa_offset 16
	.cfi_offset 6, -16
	movq	%rsp, %rbp
	.cfi_def_cfa_register 6
	subq	$16, %rsp
	movq	%rdi, -8(%rbp)
	movq	-8(%rbp), %rax
	movq	%rax, %rdi
	call	_ZNSt12_Vector_baseIiSaIiEE12_Vector_implC1Ev
	nop
	leave
	.cfi_def_cfa 7, 8
	ret
	.cfi_endproc
.LFE9800:
	.size	_ZNSt12_Vector_baseIiSaIiEEC2Ev, .-_ZNSt12_Vector_baseIiSaIiEEC2Ev
	.weak	_ZNSt12_Vector_baseIiSaIiEEC1Ev
	.set	_ZNSt12_Vector_baseIiSaIiEEC1Ev,_ZNSt12_Vector_baseIiSaIiEEC2Ev
	.section	.text._ZNSt6vectorIiSaIiEEC2Ev,"axG",@progbits,_ZNSt6vectorIiSaIiEEC5Ev,comdat
	.align 2
	.weak	_ZNSt6vectorIiSaIiEEC2Ev
	.type	_ZNSt6vectorIiSaIiEEC2Ev, @function
_ZNSt6vectorIiSaIiEEC2Ev:
.LFB9802:
	.cfi_startproc
	endbr64
	pushq	%rbp
	.cfi_def_cfa_offset 16
	.cfi_offset 6, -16
	movq	%rsp, %rbp
	.cfi_def_cfa_register 6
	subq	$16, %rsp
	movq	%rdi, -8(%rbp)
	movq	-8(%rbp), %rax
	movq	%rax, %rdi
	call	_ZNSt12_Vector_baseIiSaIiEEC2Ev
	nop
	leave
	.cfi_def_cfa 7, 8
	ret
	.cfi_endproc
.LFE9802:
	.size	_ZNSt6vectorIiSaIiEEC2Ev, .-_ZNSt6vectorIiSaIiEEC2Ev
	.weak	_ZNSt6vectorIiSaIiEEC1Ev
	.set	_ZNSt6vectorIiSaIiEEC1Ev,_ZNSt6vectorIiSaIiEEC2Ev
	.globl	__popcountdi2
	.section	.text._ZSt10__popcountIyEiT_,"axG",@progbits,_ZSt10__popcountIyEiT_,comdat
	.weak	_ZSt10__popcountIyEiT_
	.type	_ZSt10__popcountIyEiT_, @function
_ZSt10__popcountIyEiT_:
.LFB9804:
	.cfi_startproc
	endbr64
	pushq	%rbp
	.cfi_def_cfa_offset 16
	.cfi_offset 6, -16
	movq	%rsp, %rbp
	.cfi_def_cfa_register 6
	subq	$32, %rsp
	movq	%rdi, -24(%rbp)
	movl	$64, -16(%rbp)
	movl	$64, -12(%rbp)
	movl	$64, -8(%rbp)
	movl	$32, -4(%rbp)
	movq	-24(%rbp), %rdi
	call	__popcountdi2@PLT
	leave
	.cfi_def_cfa 7, 8
	ret
	.cfi_endproc
.LFE9804:
	.size	_ZSt10__popcountIyEiT_, .-_ZSt10__popcountIyEiT_
	.text
	.align 2
	.globl	_ZN5Board13get_positionsEy
	.type	_ZN5Board13get_positionsEy, @function
_ZN5Board13get_positionsEy:
.LFB9794:
	.cfi_startproc
	.cfi_personality 0x9b,DW.ref.__gxx_personality_v0
	.cfi_lsda 0x1b,.LLSDA9794
	endbr64
	pushq	%rbp
	.cfi_def_cfa_offset 16
	.cfi_offset 6, -16
	movq	%rsp, %rbp
	.cfi_def_cfa_register 6
	pushq	%rbx
	subq	$72, %rsp
	.cfi_offset 3, -24
	movq	%rdi, -56(%rbp)
	movq	%rsi, -64(%rbp)
	movq	%rdx, -72(%rbp)
	movq	%fs:40, %rax
	movq	%rax, -24(%rbp)
	xorl	%eax, %eax
	movq	-56(%rbp), %rax
	movq	%rax, %rdi
	call	_ZNSt6vectorIiSaIiEEC1Ev
	movq	-72(%rbp), %rax
	movq	%rax, %rdi
	call	_ZSt10__popcountIyEiT_
	movl	%eax, -40(%rbp)
	movl	$0, -44(%rbp)
	jmp	.L465
.L466:
	movq	-72(%rbp), %rdx
	movq	-64(%rbp), %rax
	movq	%rdx, %rsi
	movq	%rax, %rdi
	call	_ZN5Board13get_lsb_indexEy
	movl	%eax, -36(%rbp)
	movq	-72(%rbp), %rax
	movq	%rax, -32(%rbp)
	movl	-36(%rbp), %edx
	leaq	-32(%rbp), %rcx
	movq	-64(%rbp), %rax
	movq	%rcx, %rsi
	movq	%rax, %rdi
	call	_ZN5Board10remove_bitERyi
	movq	-32(%rbp), %rax
	xorq	-72(%rbp), %rax
	movq	%rax, %rdi
	call	_ZSt4log2IyEN9__gnu_cxx11__enable_ifIXsrSt12__is_integerIT_E7__valueEdE6__typeES3_
	cvttsd2sil	%xmm0, %eax
	movl	%eax, -48(%rbp)
	leaq	-48(%rbp), %rdx
	movq	-56(%rbp), %rax
	movq	%rdx, %rsi
	movq	%rax, %rdi
.LEHB83:
	call	_ZNSt6vectorIiSaIiEE9push_backERKi
.LEHE83:
	movq	-32(%rbp), %rax
	movq	%rax, -72(%rbp)
	addl	$1, -44(%rbp)
.L465:
	movl	-44(%rbp), %eax
	cmpl	-40(%rbp), %eax
	jl	.L466
	jmp	.L471
.L470:
	endbr64
	movq	%rax, %rbx
	movq	-56(%rbp), %rax
	movq	%rax, %rdi
	call	_ZNSt6vectorIiSaIiEED1Ev
	movq	%rbx, %rax
	movq	%rax, %rdi
.LEHB84:
	call	_Unwind_Resume@PLT
.LEHE84:
.L471:
	movq	-24(%rbp), %rax
	subq	%fs:40, %rax
	je	.L469
	call	__stack_chk_fail@PLT
.L469:
	movq	-56(%rbp), %rax
	movq	-8(%rbp), %rbx
	leave
	.cfi_def_cfa 7, 8
	ret
	.cfi_endproc
.LFE9794:
	.section	.gcc_except_table
.LLSDA9794:
	.byte	0xff
	.byte	0xff
	.byte	0x1
	.uleb128 .LLSDACSE9794-.LLSDACSB9794
.LLSDACSB9794:
	.uleb128 .LEHB83-.LFB9794
	.uleb128 .LEHE83-.LEHB83
	.uleb128 .L470-.LFB9794
	.uleb128 0
	.uleb128 .LEHB84-.LFB9794
	.uleb128 .LEHE84-.LEHB84
	.uleb128 0
	.uleb128 0
.LLSDACSE9794:
	.text
	.size	_ZN5Board13get_positionsEy, .-_ZN5Board13get_positionsEy
	.align 2
	.globl	_ZN5Board8is_checkEi
	.type	_ZN5Board8is_checkEi, @function
_ZN5Board8is_checkEi:
.LFB9811:
	.cfi_startproc
	endbr64
	pushq	%rbp
	.cfi_def_cfa_offset 16
	.cfi_offset 6, -16
	movq	%rsp, %rbp
	.cfi_def_cfa_register 6
	subq	$64, %rsp
	movq	%rdi, -56(%rbp)
	movl	%esi, -60(%rbp)
	movq	%fs:40, %rax
	movq	%rax, -8(%rbp)
	xorl	%eax, %eax
	movq	-56(%rbp), %rax
	leaq	120(%rax), %rdx
	movb	$75, -32(%rbp)
	leaq	-32(%rbp), %rax
	movq	%rax, %rsi
	movq	%rdx, %rdi
	call	_ZNSt3mapIcySt4lessIcESaISt4pairIKcyEEEixEOc
	movq	(%rax), %rax
	movq	%rax, -40(%rbp)
	cmpl	$0, -60(%rbp)
	je	.L473
	movq	-56(%rbp), %rax
	leaq	120(%rax), %rdx
	movb	$107, -32(%rbp)
	leaq	-32(%rbp), %rax
	movq	%rax, %rsi
	movq	%rdx, %rdi
	call	_ZNSt3mapIcySt4lessIcESaISt4pairIKcyEEEixEOc
	movq	(%rax), %rax
	movq	%rax, -40(%rbp)
.L473:
	leaq	-32(%rbp), %rax
	movq	-40(%rbp), %rdx
	movq	-56(%rbp), %rcx
	movq	%rcx, %rsi
	movq	%rax, %rdi
	call	_ZN5Board13get_positionsEy
	leaq	-32(%rbp), %rax
	movl	$0, %esi
	movq	%rax, %rdi
	call	_ZNSt6vectorIiSaIiEEixEm
	movl	(%rax), %eax
	movl	%eax, -44(%rbp)
	leaq	-32(%rbp), %rax
	movq	%rax, %rdi
	call	_ZNSt6vectorIiSaIiEED1Ev
	cmpl	$0, -60(%rbp)
	sete	%al
	movzbl	%al, %edx
	movl	-44(%rbp), %ecx
	movq	-56(%rbp), %rax
	movl	%ecx, %esi
	movq	%rax, %rdi
	call	_ZN5Board18is_square_attackedEii
	testb	%al, %al
	je	.L474
	movl	$1, %eax
	jmp	.L475
.L474:
	movl	$0, %eax
.L475:
	movq	-8(%rbp), %rdx
	subq	%fs:40, %rdx
	je	.L476
	call	__stack_chk_fail@PLT
.L476:
	leave
	.cfi_def_cfa 7, 8
	ret
	.cfi_endproc
.LFE9811:
	.size	_ZN5Board8is_checkEi, .-_ZN5Board8is_checkEi
	.section	.text._ZN5Board4moveC2Ev,"axG",@progbits,_ZN5Board4moveC5Ev,comdat
	.align 2
	.weak	_ZN5Board4moveC2Ev
	.type	_ZN5Board4moveC2Ev, @function
_ZN5Board4moveC2Ev:
.LFB9814:
	.cfi_startproc
	endbr64
	pushq	%rbp
	.cfi_def_cfa_offset 16
	.cfi_offset 6, -16
	movq	%rsp, %rbp
	.cfi_def_cfa_register 6
	subq	$16, %rsp
	movq	%rdi, -8(%rbp)
	movq	-8(%rbp), %rax
	addq	$24, %rax
	movq	%rax, %rdi
	call	_ZNSt7__cxx1112basic_stringIcSt11char_traitsIcESaIcEEC1Ev@PLT
	nop
	leave
	.cfi_def_cfa 7, 8
	ret
	.cfi_endproc
.LFE9814:
	.size	_ZN5Board4moveC2Ev, .-_ZN5Board4moveC2Ev
	.weak	_ZN5Board4moveC1Ev
	.set	_ZN5Board4moveC1Ev,_ZN5Board4moveC2Ev
	.section	.text._ZN5Board4moveD2Ev,"axG",@progbits,_ZN5Board4moveD5Ev,comdat
	.align 2
	.weak	_ZN5Board4moveD2Ev
	.type	_ZN5Board4moveD2Ev, @function
_ZN5Board4moveD2Ev:
.LFB9817:
	.cfi_startproc
	endbr64
	pushq	%rbp
	.cfi_def_cfa_offset 16
	.cfi_offset 6, -16
	movq	%rsp, %rbp
	.cfi_def_cfa_register 6
	subq	$16, %rsp
	movq	%rdi, -8(%rbp)
	movq	-8(%rbp), %rax
	addq	$24, %rax
	movq	%rax, %rdi
	call	_ZNSt7__cxx1112basic_stringIcSt11char_traitsIcESaIcEED1Ev@PLT
	nop
	leave
	.cfi_def_cfa 7, 8
	ret
	.cfi_endproc
.LFE9817:
	.size	_ZN5Board4moveD2Ev, .-_ZN5Board4moveD2Ev
	.weak	_ZN5Board4moveD1Ev
	.set	_ZN5Board4moveD1Ev,_ZN5Board4moveD2Ev
	.section	.text._ZN5Board4moveC2EOS0_,"axG",@progbits,_ZN5Board4moveC5EOS0_,comdat
	.align 2
	.weak	_ZN5Board4moveC2EOS0_
	.type	_ZN5Board4moveC2EOS0_, @function
_ZN5Board4moveC2EOS0_:
.LFB9820:
	.cfi_startproc
	endbr64
	pushq	%rbp
	.cfi_def_cfa_offset 16
	.cfi_offset 6, -16
	movq	%rsp, %rbp
	.cfi_def_cfa_register 6
	subq	$16, %rsp
	movq	%rdi, -8(%rbp)
	movq	%rsi, -16(%rbp)
	movq	-16(%rbp), %rax
	movzbl	(%rax), %edx
	movq	-8(%rbp), %rax
	movb	%dl, (%rax)
	movq	-16(%rbp), %rax
	movzbl	1(%rax), %edx
	movq	-8(%rbp), %rax
	movb	%dl, 1(%rax)
	movq	-16(%rbp), %rax
	movl	4(%rax), %edx
	movq	-8(%rbp), %rax
	movl	%edx, 4(%rax)
	movq	-16(%rbp), %rax
	movl	8(%rax), %edx
	movq	-8(%rbp), %rax
	movl	%edx, 8(%rax)
	movq	-16(%rbp), %rax
	movl	12(%rax), %edx
	movq	-8(%rbp), %rax
	movl	%edx, 12(%rax)
	movq	-16(%rbp), %rax
	movl	16(%rax), %edx
	movq	-8(%rbp), %rax
	movl	%edx, 16(%rax)
	movq	-16(%rbp), %rax
	movzbl	20(%rax), %edx
	movq	-8(%rbp), %rax
	movb	%dl, 20(%rax)
	movq	-16(%rbp), %rax
	movzbl	21(%rax), %edx
	movq	-8(%rbp), %rax
	movb	%dl, 21(%rax)
	movq	-16(%rbp), %rax
	movzbl	22(%rax), %edx
	movq	-8(%rbp), %rax
	movb	%dl, 22(%rax)
	movq	-8(%rbp), %rax
	addq	$24, %rax
	movq	-16(%rbp), %rdx
	addq	$24, %rdx
	movq	%rdx, %rsi
	movq	%rax, %rdi
	call	_ZNSt7__cxx1112basic_stringIcSt11char_traitsIcESaIcEEC1EOS4_@PLT
	nop
	leave
	.cfi_def_cfa 7, 8
	ret
	.cfi_endproc
.LFE9820:
	.size	_ZN5Board4moveC2EOS0_, .-_ZN5Board4moveC2EOS0_
	.weak	_ZN5Board4moveC1EOS0_
	.set	_ZN5Board4moveC1EOS0_,_ZN5Board4moveC2EOS0_
	.section	.rodata
.LC82:
	.string	"O-O"
.LC83:
	.string	"O-O-O"
	.text
	.align 2
	.globl	_ZN5Board8get_moveEbiiiiccyc
	.type	_ZN5Board8get_moveEbiiiiccyc, @function
_ZN5Board8get_moveEbiiiiccyc:
.LFB9812:
	.cfi_startproc
	.cfi_personality 0x9b,DW.ref.__gxx_personality_v0
	.cfi_lsda 0x1b,.LLSDA9812
	endbr64
	pushq	%rbp
	.cfi_def_cfa_offset 16
	.cfi_offset 6, -16
	movq	%rsp, %rbp
	.cfi_def_cfa_register 6
	pushq	%rbx
	subq	$120, %rsp
	.cfi_offset 3, -24
	movq	%rdi, -88(%rbp)
	movq	%rsi, -96(%rbp)
	movl	%edx, %eax
	movl	%ecx, -104(%rbp)
	movl	%r8d, -108(%rbp)
	movl	%r9d, -112(%rbp)
	movl	24(%rbp), %esi
	movl	32(%rbp), %ecx
	movl	48(%rbp), %edx
	movb	%al, -100(%rbp)
	movl	%esi, %eax
	movb	%al, -116(%rbp)
	movl	%ecx, %eax
	movb	%al, -120(%rbp)
	movl	%edx, %eax
	movb	%al, -124(%rbp)
	movq	%fs:40, %rax
	movq	%rax, -24(%rbp)
	xorl	%eax, %eax
	movq	$0, -72(%rbp)
	movl	-108(%rbp), %edx
	leaq	-72(%rbp), %rcx
	movq	-96(%rbp), %rax
	movq	%rcx, %rsi
	movq	%rax, %rdi
	call	_ZN5Board7set_bitERyi
	movq	-88(%rbp), %rax
	movq	%rax, %rdi
	call	_ZN5Board4moveC1Ev
	movq	-88(%rbp), %rax
	movl	-104(%rbp), %edx
	movl	%edx, 4(%rax)
	movq	-88(%rbp), %rax
	movl	-108(%rbp), %edx
	movl	%edx, 8(%rax)
	movq	-88(%rbp), %rax
	movl	-112(%rbp), %edx
	movl	%edx, 12(%rax)
	movq	-88(%rbp), %rax
	movzbl	-100(%rbp), %edx
	movb	%dl, 1(%rax)
	movq	-72(%rbp), %rax
	andq	40(%rbp), %rax
	testq	%rax, %rax
	jne	.L481
	cmpb	$0, -100(%rbp)
	je	.L482
.L481:
	movq	-88(%rbp), %rax
	movb	$1, (%rax)
	jmp	.L483
.L482:
	movq	-88(%rbp), %rax
	movb	$0, (%rax)
.L483:
	movq	-88(%rbp), %rax
	movl	16(%rbp), %edx
	movl	%edx, 16(%rax)
	movq	-88(%rbp), %rax
	movzbl	-116(%rbp), %edx
	movb	%dl, 20(%rax)
	cmpl	$0, -112(%rbp)
	jne	.L484
	movq	-96(%rbp), %rax
	movl	-108(%rbp), %edx
	movslq	%edx, %rdx
	movq	%rdx, %rsi
	movq	%rax, %rdi
	call	_ZNKSt6vectorINSt7__cxx1112basic_stringIcSt11char_traitsIcESaIcEEESaIS5_EEixEm
	movq	%rax, %rbx
	movq	-96(%rbp), %rax
	movl	-104(%rbp), %edx
	movslq	%edx, %rdx
	movq	%rdx, %rsi
	movq	%rax, %rdi
	call	_ZNKSt6vectorINSt7__cxx1112basic_stringIcSt11char_traitsIcESaIcEEESaIS5_EEixEm
	movq	%rax, %rcx
	leaq	-64(%rbp), %rax
	movq	%rbx, %rdx
	movq	%rcx, %rsi
	movq	%rax, %rdi
.LEHB85:
	call	_ZStplIcSt11char_traitsIcESaIcEENSt7__cxx1112basic_stringIT_T0_T1_EERKS8_SA_
	movq	-88(%rbp), %rax
	leaq	24(%rax), %rdx
	leaq	-64(%rbp), %rax
	movq	%rax, %rsi
	movq	%rdx, %rdi
	call	_ZNSt7__cxx1112basic_stringIcSt11char_traitsIcESaIcEEaSEOS4_@PLT
	leaq	-64(%rbp), %rax
	movq	%rax, %rdi
	call	_ZNSt7__cxx1112basic_stringIcSt11char_traitsIcESaIcEED1Ev@PLT
	jmp	.L485
.L484:
	cmpl	$2, -112(%rbp)
	je	.L486
	cmpl	$8, -112(%rbp)
	jne	.L487
.L486:
	movq	-88(%rbp), %rax
	addq	$24, %rax
	leaq	.LC82(%rip), %rdx
	movq	%rdx, %rsi
	movq	%rax, %rdi
	call	_ZNSt7__cxx1112basic_stringIcSt11char_traitsIcESaIcEEaSEPKc@PLT
	jmp	.L485
.L487:
	movq	-88(%rbp), %rax
	addq	$24, %rax
	leaq	.LC83(%rip), %rdx
	movq	%rdx, %rsi
	movq	%rax, %rdi
	call	_ZNSt7__cxx1112basic_stringIcSt11char_traitsIcESaIcEEaSEPKc@PLT
.LEHE85:
.L485:
	movq	-88(%rbp), %rax
	movzbl	-120(%rbp), %edx
	movb	%dl, 21(%rax)
	movq	-88(%rbp), %rax
	movzbl	-124(%rbp), %edx
	movb	%dl, 22(%rax)
	nop
	movq	-24(%rbp), %rax
	subq	%fs:40, %rax
	je	.L490
	jmp	.L492
.L491:
	endbr64
	movq	%rax, %rbx
	movq	-88(%rbp), %rax
	movq	%rax, %rdi
	call	_ZN5Board4moveD1Ev
	movq	%rbx, %rax
	movq	%rax, %rdi
.LEHB86:
	call	_Unwind_Resume@PLT
.LEHE86:
.L492:
	call	__stack_chk_fail@PLT
.L490:
	movq	-88(%rbp), %rax
	movq	-8(%rbp), %rbx
	leave
	.cfi_def_cfa 7, 8
	ret
	.cfi_endproc
.LFE9812:
	.section	.gcc_except_table
.LLSDA9812:
	.byte	0xff
	.byte	0xff
	.byte	0x1
	.uleb128 .LLSDACSE9812-.LLSDACSB9812
.LLSDACSB9812:
	.uleb128 .LEHB85-.LFB9812
	.uleb128 .LEHE85-.LEHB85
	.uleb128 .L491-.LFB9812
	.uleb128 0
	.uleb128 .LEHB86-.LFB9812
	.uleb128 .LEHE86-.LEHB86
	.uleb128 0
	.uleb128 0
.LLSDACSE9812:
	.text
	.size	_ZN5Board8get_moveEbiiiiccyc, .-_ZN5Board8get_moveEbiiiiccyc
	.section	.text._ZNSt12_Vector_baseIN5Board4moveESaIS1_EE12_Vector_implD2Ev,"axG",@progbits,_ZNSt12_Vector_baseIN5Board4moveESaIS1_EE12_Vector_implD5Ev,comdat
	.align 2
	.weak	_ZNSt12_Vector_baseIN5Board4moveESaIS1_EE12_Vector_implD2Ev
	.type	_ZNSt12_Vector_baseIN5Board4moveESaIS1_EE12_Vector_implD2Ev, @function
_ZNSt12_Vector_baseIN5Board4moveESaIS1_EE12_Vector_implD2Ev:
.LFB9827:
	.cfi_startproc
	endbr64
	pushq	%rbp
	.cfi_def_cfa_offset 16
	.cfi_offset 6, -16
	movq	%rsp, %rbp
	.cfi_def_cfa_register 6
	subq	$16, %rsp
	movq	%rdi, -8(%rbp)
	movq	-8(%rbp), %rax
	movq	%rax, %rdi
	call	_ZNSaIN5Board4moveEED2Ev
	nop
	leave
	.cfi_def_cfa 7, 8
	ret
	.cfi_endproc
.LFE9827:
	.size	_ZNSt12_Vector_baseIN5Board4moveESaIS1_EE12_Vector_implD2Ev, .-_ZNSt12_Vector_baseIN5Board4moveESaIS1_EE12_Vector_implD2Ev
	.weak	_ZNSt12_Vector_baseIN5Board4moveESaIS1_EE12_Vector_implD1Ev
	.set	_ZNSt12_Vector_baseIN5Board4moveESaIS1_EE12_Vector_implD1Ev,_ZNSt12_Vector_baseIN5Board4moveESaIS1_EE12_Vector_implD2Ev
	.section	.text._ZNSt12_Vector_baseIN5Board4moveESaIS1_EEC2Ev,"axG",@progbits,_ZNSt12_Vector_baseIN5Board4moveESaIS1_EEC5Ev,comdat
	.align 2
	.weak	_ZNSt12_Vector_baseIN5Board4moveESaIS1_EEC2Ev
	.type	_ZNSt12_Vector_baseIN5Board4moveESaIS1_EEC2Ev, @function
_ZNSt12_Vector_baseIN5Board4moveESaIS1_EEC2Ev:
.LFB9829:
	.cfi_startproc
	endbr64
	pushq	%rbp
	.cfi_def_cfa_offset 16
	.cfi_offset 6, -16
	movq	%rsp, %rbp
	.cfi_def_cfa_register 6
	subq	$16, %rsp
	movq	%rdi, -8(%rbp)
	movq	-8(%rbp), %rax
	movq	%rax, %rdi
	call	_ZNSt12_Vector_baseIN5Board4moveESaIS1_EE12_Vector_implC1Ev
	nop
	leave
	.cfi_def_cfa 7, 8
	ret
	.cfi_endproc
.LFE9829:
	.size	_ZNSt12_Vector_baseIN5Board4moveESaIS1_EEC2Ev, .-_ZNSt12_Vector_baseIN5Board4moveESaIS1_EEC2Ev
	.weak	_ZNSt12_Vector_baseIN5Board4moveESaIS1_EEC1Ev
	.set	_ZNSt12_Vector_baseIN5Board4moveESaIS1_EEC1Ev,_ZNSt12_Vector_baseIN5Board4moveESaIS1_EEC2Ev
	.section	.text._ZNSt6vectorIN5Board4moveESaIS1_EEC2Ev,"axG",@progbits,_ZNSt6vectorIN5Board4moveESaIS1_EEC5Ev,comdat
	.align 2
	.weak	_ZNSt6vectorIN5Board4moveESaIS1_EEC2Ev
	.type	_ZNSt6vectorIN5Board4moveESaIS1_EEC2Ev, @function
_ZNSt6vectorIN5Board4moveESaIS1_EEC2Ev:
.LFB9831:
	.cfi_startproc
	endbr64
	pushq	%rbp
	.cfi_def_cfa_offset 16
	.cfi_offset 6, -16
	movq	%rsp, %rbp
	.cfi_def_cfa_register 6
	subq	$16, %rsp
	movq	%rdi, -8(%rbp)
	movq	-8(%rbp), %rax
	movq	%rax, %rdi
	call	_ZNSt12_Vector_baseIN5Board4moveESaIS1_EEC2Ev
	nop
	leave
	.cfi_def_cfa 7, 8
	ret
	.cfi_endproc
.LFE9831:
	.size	_ZNSt6vectorIN5Board4moveESaIS1_EEC2Ev, .-_ZNSt6vectorIN5Board4moveESaIS1_EEC2Ev
	.weak	_ZNSt6vectorIN5Board4moveESaIS1_EEC1Ev
	.set	_ZNSt6vectorIN5Board4moveESaIS1_EEC1Ev,_ZNSt6vectorIN5Board4moveESaIS1_EEC2Ev
	.section	.text._ZN5Board4moveC2ERKS0_,"axG",@progbits,_ZN5Board4moveC5ERKS0_,comdat
	.align 2
	.weak	_ZN5Board4moveC2ERKS0_
	.type	_ZN5Board4moveC2ERKS0_, @function
_ZN5Board4moveC2ERKS0_:
.LFB9834:
	.cfi_startproc
	endbr64
	pushq	%rbp
	.cfi_def_cfa_offset 16
	.cfi_offset 6, -16
	movq	%rsp, %rbp
	.cfi_def_cfa_register 6
	subq	$16, %rsp
	movq	%rdi, -8(%rbp)
	movq	%rsi, -16(%rbp)
	movq	-16(%rbp), %rax
	movzbl	(%rax), %edx
	movq	-8(%rbp), %rax
	movb	%dl, (%rax)
	movq	-16(%rbp), %rax
	movzbl	1(%rax), %edx
	movq	-8(%rbp), %rax
	movb	%dl, 1(%rax)
	movq	-16(%rbp), %rax
	movl	4(%rax), %edx
	movq	-8(%rbp), %rax
	movl	%edx, 4(%rax)
	movq	-16(%rbp), %rax
	movl	8(%rax), %edx
	movq	-8(%rbp), %rax
	movl	%edx, 8(%rax)
	movq	-16(%rbp), %rax
	movl	12(%rax), %edx
	movq	-8(%rbp), %rax
	movl	%edx, 12(%rax)
	movq	-16(%rbp), %rax
	movl	16(%rax), %edx
	movq	-8(%rbp), %rax
	movl	%edx, 16(%rax)
	movq	-16(%rbp), %rax
	movzbl	20(%rax), %edx
	movq	-8(%rbp), %rax
	movb	%dl, 20(%rax)
	movq	-16(%rbp), %rax
	movzbl	21(%rax), %edx
	movq	-8(%rbp), %rax
	movb	%dl, 21(%rax)
	movq	-16(%rbp), %rax
	movzbl	22(%rax), %edx
	movq	-8(%rbp), %rax
	movb	%dl, 22(%rax)
	movq	-8(%rbp), %rax
	addq	$24, %rax
	movq	-16(%rbp), %rdx
	addq	$24, %rdx
	movq	%rdx, %rsi
	movq	%rax, %rdi
	call	_ZNSt7__cxx1112basic_stringIcSt11char_traitsIcESaIcEEC1ERKS4_@PLT
	nop
	leave
	.cfi_def_cfa 7, 8
	ret
	.cfi_endproc
.LFE9834:
	.size	_ZN5Board4moveC2ERKS0_, .-_ZN5Board4moveC2ERKS0_
	.weak	_ZN5Board4moveC1ERKS0_
	.set	_ZN5Board4moveC1ERKS0_,_ZN5Board4moveC2ERKS0_
	.section	.text._ZN5Board4moveaSERKS0_,"axG",@progbits,_ZN5Board4moveaSERKS0_,comdat
	.align 2
	.weak	_ZN5Board4moveaSERKS0_
	.type	_ZN5Board4moveaSERKS0_, @function
_ZN5Board4moveaSERKS0_:
.LFB9836:
	.cfi_startproc
	endbr64
	pushq	%rbp
	.cfi_def_cfa_offset 16
	.cfi_offset 6, -16
	movq	%rsp, %rbp
	.cfi_def_cfa_register 6
	subq	$16, %rsp
	movq	%rdi, -8(%rbp)
	movq	%rsi, -16(%rbp)
	movq	-16(%rbp), %rax
	movzbl	(%rax), %edx
	movq	-8(%rbp), %rax
	movb	%dl, (%rax)
	movq	-16(%rbp), %rax
	movzbl	1(%rax), %edx
	movq	-8(%rbp), %rax
	movb	%dl, 1(%rax)
	movq	-16(%rbp), %rax
	movl	4(%rax), %edx
	movq	-8(%rbp), %rax
	movl	%edx, 4(%rax)
	movq	-16(%rbp), %rax
	movl	8(%rax), %edx
	movq	-8(%rbp), %rax
	movl	%edx, 8(%rax)
	movq	-16(%rbp), %rax
	movl	12(%rax), %edx
	movq	-8(%rbp), %rax
	movl	%edx, 12(%rax)
	movq	-16(%rbp), %rax
	movl	16(%rax), %edx
	movq	-8(%rbp), %rax
	movl	%edx, 16(%rax)
	movq	-16(%rbp), %rax
	movzbl	20(%rax), %edx
	movq	-8(%rbp), %rax
	movb	%dl, 20(%rax)
	movq	-16(%rbp), %rax
	movzbl	21(%rax), %edx
	movq	-8(%rbp), %rax
	movb	%dl, 21(%rax)
	movq	-16(%rbp), %rax
	movzbl	22(%rax), %edx
	movq	-8(%rbp), %rax
	movb	%dl, 22(%rax)
	movq	-16(%rbp), %rax
	leaq	24(%rax), %rdx
	movq	-8(%rbp), %rax
	addq	$24, %rax
	movq	%rdx, %rsi
	movq	%rax, %rdi
	call	_ZNSt7__cxx1112basic_stringIcSt11char_traitsIcESaIcEEaSERKS4_@PLT
	movq	-8(%rbp), %rax
	leave
	.cfi_def_cfa 7, 8
	ret
	.cfi_endproc
.LFE9836:
	.size	_ZN5Board4moveaSERKS0_, .-_ZN5Board4moveaSERKS0_
	.text
	.align 2
	.globl	_ZN5Board15get_legal_movesEi
	.type	_ZN5Board15get_legal_movesEi, @function
_ZN5Board15get_legal_movesEi:
.LFB9822:
	.cfi_startproc
	.cfi_personality 0x9b,DW.ref.__gxx_personality_v0
	.cfi_lsda 0x1b,.LLSDA9822
	endbr64
	pushq	%rbp
	.cfi_def_cfa_offset 16
	.cfi_offset 6, -16
	movq	%rsp, %rbp
	.cfi_def_cfa_register 6
	pushq	%r12
	pushq	%rbx
	subq	$480, %rsp
	.cfi_offset 12, -24
	.cfi_offset 3, -32
	movq	%rdi, -472(%rbp)
	movq	%rsi, -480(%rbp)
	movl	%edx, -484(%rbp)
	movq	%fs:40, %rax
	movq	%rax, -24(%rbp)
	xorl	%eax, %eax
	movq	-472(%rbp), %rax
	movq	%rax, %rdi
	call	_ZNSt6vectorIN5Board4moveESaIS1_EEC1Ev
	movl	$0, -460(%rbp)
	movq	-480(%rbp), %rax
	leaq	120(%rax), %rdx
	movb	$49, -320(%rbp)
	leaq	-320(%rbp), %rax
	movq	%rax, %rsi
	movq	%rdx, %rdi
.LEHB87:
	call	_ZNSt3mapIcySt4lessIcESaISt4pairIKcyEEEixEOc
	movq	(%rax), %rbx
	movq	-480(%rbp), %rax
	leaq	120(%rax), %rdx
	movb	$107, -288(%rbp)
	leaq	-288(%rbp), %rax
	movq	%rax, %rsi
	movq	%rdx, %rdi
	call	_ZNSt3mapIcySt4lessIcESaISt4pairIKcyEEEixEOc
	movq	(%rax), %rax
	xorq	%rbx, %rax
	movq	%rax, -376(%rbp)
	cmpl	$0, -484(%rbp)
	je	.L500
	movl	$6, -460(%rbp)
	movq	-480(%rbp), %rax
	leaq	120(%rax), %rdx
	movb	$48, -320(%rbp)
	leaq	-320(%rbp), %rax
	movq	%rax, %rsi
	movq	%rdx, %rdi
	call	_ZNSt3mapIcySt4lessIcESaISt4pairIKcyEEEixEOc
	movq	(%rax), %rbx
	movq	-480(%rbp), %rax
	leaq	120(%rax), %rdx
	movb	$75, -288(%rbp)
	leaq	-288(%rbp), %rax
	movq	%rax, %rsi
	movq	%rdx, %rdi
	call	_ZNSt3mapIcySt4lessIcESaISt4pairIKcyEEEixEOc
	movq	(%rax), %rax
	xorq	%rbx, %rax
	movq	%rax, -376(%rbp)
.L500:
	movl	$0, -456(%rbp)
	jmp	.L501
.L537:
	movq	-480(%rbp), %rax
	leaq	24(%rax), %rdx
	movl	-456(%rbp), %ecx
	movl	-460(%rbp), %eax
	addl	%ecx, %eax
	cltq
	movq	%rax, %rsi
	movq	%rdx, %rdi
	call	_ZNSt7__cxx1112basic_stringIcSt11char_traitsIcESaIcEEixEm@PLT
	movzbl	(%rax), %eax
	movb	%al, -462(%rbp)
	movq	-480(%rbp), %rax
	leaq	120(%rax), %rdx
	leaq	-462(%rbp), %rax
	movq	%rax, %rsi
	movq	%rdx, %rdi
	call	_ZNSt3mapIcySt4lessIcESaISt4pairIKcyEEEixERS3_
	movq	(%rax), %rax
	movq	%rax, -344(%rbp)
	leaq	-320(%rbp), %rax
	movq	-344(%rbp), %rdx
	movq	-480(%rbp), %rcx
	movq	%rcx, %rsi
	movq	%rax, %rdi
	call	_ZN5Board13get_positionsEy
.LEHE87:
	leaq	-320(%rbp), %rax
	movq	%rax, -336(%rbp)
	movq	-336(%rbp), %rax
	movq	%rax, %rdi
	call	_ZNSt6vectorIiSaIiEE5beginEv
	movq	%rax, -416(%rbp)
	movq	-336(%rbp), %rax
	movq	%rax, %rdi
	call	_ZNSt6vectorIiSaIiEE3endEv
	movq	%rax, -408(%rbp)
	jmp	.L502
.L536:
	leaq	-416(%rbp), %rax
	movq	%rax, %rdi
	call	_ZNK9__gnu_cxx17__normal_iteratorIPiSt6vectorIiSaIiEEEdeEv
	movl	(%rax), %eax
	movl	%eax, -428(%rbp)
	movzbl	-462(%rbp), %eax
	movsbl	%al, %eax
	subl	$66, %eax
	cmpl	$48, %eax
	ja	.L503
	movl	%eax, %eax
	leaq	0(,%rax,4), %rdx
	leaq	.L505(%rip), %rax
	movl	(%rdx,%rax), %eax
	cltq
	leaq	.L505(%rip), %rdx
	addq	%rdx, %rax
	notrack jmp	*%rax
	.section	.rodata
	.align 4
	.align 4
.L505:
	.long	.L510-.L505
	.long	.L503-.L505
	.long	.L503-.L505
	.long	.L503-.L505
	.long	.L503-.L505
	.long	.L503-.L505
	.long	.L503-.L505
	.long	.L503-.L505
	.long	.L503-.L505
	.long	.L509-.L505
	.long	.L503-.L505
	.long	.L503-.L505
	.long	.L508-.L505
	.long	.L503-.L505
	.long	.L507-.L505
	.long	.L506-.L505
	.long	.L504-.L505
	.long	.L503-.L505
	.long	.L503-.L505
	.long	.L503-.L505
	.long	.L503-.L505
	.long	.L503-.L505
	.long	.L503-.L505
	.long	.L503-.L505
	.long	.L503-.L505
	.long	.L503-.L505
	.long	.L503-.L505
	.long	.L503-.L505
	.long	.L503-.L505
	.long	.L503-.L505
	.long	.L503-.L505
	.long	.L503-.L505
	.long	.L510-.L505
	.long	.L503-.L505
	.long	.L503-.L505
	.long	.L503-.L505
	.long	.L503-.L505
	.long	.L503-.L505
	.long	.L503-.L505
	.long	.L503-.L505
	.long	.L503-.L505
	.long	.L509-.L505
	.long	.L503-.L505
	.long	.L503-.L505
	.long	.L508-.L505
	.long	.L503-.L505
	.long	.L507-.L505
	.long	.L506-.L505
	.long	.L504-.L505
	.text
.L507:
	movq	-480(%rbp), %rax
	movl	-428(%rbp), %edx
	movslq	%edx, %rcx
	movl	-484(%rbp), %edx
	movslq	%edx, %rdx
	salq	$6, %rdx
	addq	%rcx, %rdx
	addq	$32, %rdx
	movq	8(%rax,%rdx,8), %rax
	andq	-376(%rbp), %rax
	movq	%rax, %rbx
	movl	-428(%rbp), %edx
	movl	-484(%rbp), %ecx
	movq	-480(%rbp), %rax
	movl	%ecx, %esi
	movq	%rax, %rdi
.LEHB88:
	call	_ZN5Board13get_pawn_pushEii
	orq	%rbx, %rax
	movq	%rax, -368(%rbp)
	jmp	.L503
.L510:
	movq	-480(%rbp), %rax
	leaq	120(%rax), %rdx
	movb	$65, -384(%rbp)
	leaq	-384(%rbp), %rax
	movq	%rax, %rsi
	movq	%rdx, %rdi
	call	_ZNSt3mapIcySt4lessIcESaISt4pairIKcyEEEixEOc
	movq	(%rax), %rdx
	movl	-428(%rbp), %ecx
	movq	-480(%rbp), %rax
	movl	%ecx, %esi
	movq	%rax, %rdi
	call	_ZN5Board28get_obstructed_bishop_attackEiy
	movq	%rax, %rbx
	movq	-480(%rbp), %rax
	leaq	120(%rax), %rdx
	movb	$69, -288(%rbp)
	leaq	-288(%rbp), %rax
	movq	%rax, %rsi
	movq	%rdx, %rdi
	call	_ZNSt3mapIcySt4lessIcESaISt4pairIKcyEEEixEOc
	movq	(%rax), %rax
	orq	-376(%rbp), %rax
	andq	%rbx, %rax
	movq	%rax, -368(%rbp)
	jmp	.L503
.L508:
	movq	-480(%rbp), %rax
	leaq	216(%rax), %rdx
	movl	-428(%rbp), %eax
	cltq
	movq	%rax, %rsi
	movq	%rdx, %rdi
	call	_ZNSt6vectorIySaIyEEixEm
	movq	(%rax), %rbx
	movq	-480(%rbp), %rax
	leaq	120(%rax), %rdx
	movb	$69, -288(%rbp)
	leaq	-288(%rbp), %rax
	movq	%rax, %rsi
	movq	%rdx, %rdi
	call	_ZNSt3mapIcySt4lessIcESaISt4pairIKcyEEEixEOc
	movq	(%rax), %rax
	orq	-376(%rbp), %rax
	andq	%rbx, %rax
	movq	%rax, -368(%rbp)
	jmp	.L503
.L504:
	movq	-480(%rbp), %rax
	leaq	120(%rax), %rdx
	movb	$65, -384(%rbp)
	leaq	-384(%rbp), %rax
	movq	%rax, %rsi
	movq	%rdx, %rdi
	call	_ZNSt3mapIcySt4lessIcESaISt4pairIKcyEEEixEOc
	movq	(%rax), %rdx
	movl	-428(%rbp), %ecx
	movq	-480(%rbp), %rax
	movl	%ecx, %esi
	movq	%rax, %rdi
	call	_ZN5Board26get_obstructed_rook_attackEiy
	movq	%rax, %rbx
	movq	-480(%rbp), %rax
	leaq	120(%rax), %rdx
	movb	$69, -288(%rbp)
	leaq	-288(%rbp), %rax
	movq	%rax, %rsi
	movq	%rdx, %rdi
	call	_ZNSt3mapIcySt4lessIcESaISt4pairIKcyEEEixEOc
	movq	(%rax), %rax
	orq	-376(%rbp), %rax
	andq	%rbx, %rax
	movq	%rax, -368(%rbp)
	jmp	.L503
.L506:
	movq	-480(%rbp), %rax
	leaq	120(%rax), %rdx
	movb	$65, -384(%rbp)
	leaq	-384(%rbp), %rax
	movq	%rax, %rsi
	movq	%rdx, %rdi
	call	_ZNSt3mapIcySt4lessIcESaISt4pairIKcyEEEixEOc
	movq	(%rax), %rdx
	movl	-428(%rbp), %ecx
	movq	-480(%rbp), %rax
	movl	%ecx, %esi
	movq	%rax, %rdi
	call	_ZN5Board16get_queen_attackEiy
	movq	%rax, %rbx
	movq	-480(%rbp), %rax
	leaq	120(%rax), %rdx
	movb	$69, -288(%rbp)
	leaq	-288(%rbp), %rax
	movq	%rax, %rsi
	movq	%rdx, %rdi
	call	_ZNSt3mapIcySt4lessIcESaISt4pairIKcyEEEixEOc
	movq	(%rax), %rax
	orq	-376(%rbp), %rax
	andq	%rbx, %rax
	movq	%rax, -368(%rbp)
	jmp	.L503
.L509:
	movq	-480(%rbp), %rax
	leaq	240(%rax), %rdx
	movl	-428(%rbp), %eax
	cltq
	movq	%rax, %rsi
	movq	%rdx, %rdi
	call	_ZNSt6vectorIySaIyEEixEm
	movq	(%rax), %rbx
	movq	-480(%rbp), %rax
	leaq	120(%rax), %rdx
	movb	$69, -288(%rbp)
	leaq	-288(%rbp), %rax
	movq	%rax, %rsi
	movq	%rdx, %rdi
	call	_ZNSt3mapIcySt4lessIcESaISt4pairIKcyEEEixEOc
	movq	(%rax), %rax
	orq	-376(%rbp), %rax
	andq	%rbx, %rax
	movq	%rax, -368(%rbp)
	nop
.L503:
	leaq	-288(%rbp), %rax
	movq	-368(%rbp), %rdx
	movq	-480(%rbp), %rcx
	movq	%rcx, %rsi
	movq	%rax, %rdi
	call	_ZN5Board13get_positionsEy
.LEHE88:
	leaq	-288(%rbp), %rax
	movq	%rax, -328(%rbp)
	movq	-328(%rbp), %rax
	movq	%rax, %rdi
	call	_ZNSt6vectorIiSaIiEE5beginEv
	movq	%rax, -400(%rbp)
	movq	-328(%rbp), %rax
	movq	%rax, %rdi
	call	_ZNSt6vectorIiSaIiEE3endEv
	movq	%rax, -392(%rbp)
	jmp	.L511
.L535:
	leaq	-400(%rbp), %rax
	movq	%rax, %rdi
	call	_ZNK9__gnu_cxx17__normal_iteratorIPiSt6vectorIiSaIiEEEdeEv
	movl	(%rax), %eax
	movl	%eax, -424(%rbp)
	movb	$32, -461(%rbp)
	movq	$0, -384(%rbp)
	movl	-424(%rbp), %edx
	leaq	-384(%rbp), %rcx
	movq	-480(%rbp), %rax
	movq	%rcx, %rsi
	movq	%rax, %rdi
	call	_ZN5Board7set_bitERyi
	movl	$0, -452(%rbp)
	jmp	.L512
.L514:
	movq	-480(%rbp), %rax
	leaq	120(%rax), %rbx
	movq	-480(%rbp), %rax
	leaq	24(%rax), %rdx
	movl	-452(%rbp), %ecx
	movl	-460(%rbp), %eax
	addl	%eax, %ecx
	movl	$11, %eax
	subl	%ecx, %eax
	cltq
	movq	%rax, %rsi
	movq	%rdx, %rdi
.LEHB89:
	call	_ZNSt7__cxx1112basic_stringIcSt11char_traitsIcESaIcEEixEm@PLT
	movq	%rax, %rsi
	movq	%rbx, %rdi
	call	_ZNSt3mapIcySt4lessIcESaISt4pairIKcyEEEixERS3_
	movq	(%rax), %rdx
	movq	-384(%rbp), %rax
	andq	%rdx, %rax
	testq	%rax, %rax
	setne	%al
	testb	%al, %al
	je	.L513
	movq	-480(%rbp), %rax
	leaq	24(%rax), %rdx
	movl	-452(%rbp), %ecx
	movl	-460(%rbp), %eax
	addl	%eax, %ecx
	movl	$11, %eax
	subl	%ecx, %eax
	cltq
	movq	%rax, %rsi
	movq	%rdx, %rdi
	call	_ZNSt7__cxx1112basic_stringIcSt11char_traitsIcESaIcEEixEm@PLT
	movzbl	(%rax), %eax
	movb	%al, -461(%rbp)
.L513:
	addl	$1, -452(%rbp)
.L512:
	cmpl	$5, -452(%rbp)
	jle	.L514
	movsbl	-461(%rbp), %edi
	movzbl	-462(%rbp), %eax
	movsbl	%al, %ecx
	leaq	-256(%rbp), %rax
	movl	-424(%rbp), %r8d
	movl	-428(%rbp), %edx
	movq	-480(%rbp), %rsi
	subq	$8, %rsp
	pushq	$32
	pushq	-376(%rbp)
	pushq	%rdi
	pushq	%rcx
	movl	-484(%rbp), %ecx
	pushq	%rcx
	movl	$0, %r9d
	movl	%edx, %ecx
	movl	$0, %edx
	movq	%rax, %rdi
	.cfi_escape 0x2e,0x30
	call	_ZN5Board8get_moveEbiiiiccyc
.LEHE89:
	addq	$48, %rsp
	movl	-424(%rbp), %eax
	cltd
	shrl	$29, %edx
	addl	%edx, %eax
	andl	$7, %eax
	subl	%edx, %eax
	cmpl	$8, %eax
	jne	.L515
	movzbl	-462(%rbp), %eax
	cmpb	$80, %al
	jne	.L515
	leaq	-256(%rbp), %rdx
	leaq	-192(%rbp), %rax
	movq	%rdx, %rsi
	movq	%rax, %rdi
.LEHB90:
	.cfi_escape 0x2e,0
	call	_ZN5Board4moveC1ERKS0_
.LEHE90:
	leaq	-192(%rbp), %rdx
	movq	-480(%rbp), %rax
	movq	%rdx, %rsi
	movq	%rax, %rdi
.LEHB91:
	call	_ZN5Board9push_moveENS_4moveE
.LEHE91:
	leaq	-192(%rbp), %rax
	movq	%rax, %rdi
	call	_ZN5Board4moveD1Ev
	movl	-484(%rbp), %edx
	movq	-480(%rbp), %rax
	movl	%edx, %esi
	movq	%rax, %rdi
.LEHB92:
	call	_ZN5Board8is_checkEi
.LEHE92:
	xorl	$1, %eax
	testb	%al, %al
	je	.L516
	leaq	-192(%rbp), %rax
	movl	$2, %ebx
	movq	%rax, %r12
	jmp	.L517
.L518:
	movq	%r12, %rdi
	call	_ZN5Board4moveC1Ev
	addq	$56, %r12
	subq	$1, %rbx
.L517:
	testq	%rbx, %rbx
	jns	.L518
	movl	$0, -448(%rbp)
	jmp	.L519
.L520:
	leaq	-192(%rbp), %rcx
	movl	-448(%rbp), %eax
	movslq	%eax, %rdx
	movq	%rdx, %rax
	salq	$3, %rax
	subq	%rdx, %rax
	salq	$3, %rax
	leaq	(%rcx,%rax), %rdx
	leaq	-256(%rbp), %rax
	movq	%rax, %rsi
	movq	%rdx, %rdi
.LEHB93:
	call	_ZN5Board4moveaSERKS0_
	movq	-480(%rbp), %rax
	leaq	56(%rax), %rdx
	movl	-448(%rbp), %eax
	cltq
	movq	%rax, %rsi
	movq	%rdx, %rdi
	call	_ZNSt7__cxx1112basic_stringIcSt11char_traitsIcESaIcEEixEm@PLT
	movzbl	(%rax), %edx
	movl	-448(%rbp), %eax
	movslq	%eax, %rcx
	movq	%rcx, %rax
	salq	$3, %rax
	subq	%rcx, %rax
	salq	$3, %rax
	leaq	-16(%rax), %rax
	addq	%rbp, %rax
	subq	$154, %rax
	movb	%dl, (%rax)
	leaq	-192(%rbp), %rcx
	movl	-448(%rbp), %eax
	movslq	%eax, %rdx
	movq	%rdx, %rax
	salq	$3, %rax
	subq	%rdx, %rax
	salq	$3, %rax
	leaq	(%rcx,%rax), %rdx
	movq	-472(%rbp), %rax
	movq	%rdx, %rsi
	movq	%rax, %rdi
	call	_ZNSt6vectorIN5Board4moveESaIS1_EE9push_backERKS1_
.LEHE93:
	addl	$1, -448(%rbp)
.L519:
	cmpl	$3, -448(%rbp)
	jle	.L520
	leaq	-192(%rbp), %rbx
	addq	$168, %rbx
.L522:
	leaq	-192(%rbp), %rax
	cmpq	%rax, %rbx
	je	.L600
	subq	$56, %rbx
	movq	%rbx, %rdi
	call	_ZN5Board4moveD1Ev
	jmp	.L522
.L600:
	nop
.L516:
	leaq	-256(%rbp), %rdx
	leaq	-192(%rbp), %rax
	movq	%rdx, %rsi
	movq	%rax, %rdi
.LEHB94:
	call	_ZN5Board4moveC1ERKS0_
.LEHE94:
	leaq	-192(%rbp), %rdx
	movq	-480(%rbp), %rax
	movq	%rdx, %rsi
	movq	%rax, %rdi
.LEHB95:
	call	_ZN5Board8pop_moveENS_4moveE
.LEHE95:
	leaq	-192(%rbp), %rax
	movq	%rax, %rdi
	call	_ZN5Board4moveD1Ev
	movl	$0, %ebx
	jmp	.L523
.L515:
	movl	-424(%rbp), %eax
	cltd
	shrl	$29, %edx
	addl	%edx, %eax
	andl	$7, %eax
	subl	%edx, %eax
	cmpl	$1, %eax
	jne	.L524
	movzbl	-462(%rbp), %eax
	cmpb	$112, %al
	jne	.L524
	leaq	-256(%rbp), %rdx
	leaq	-192(%rbp), %rax
	movq	%rdx, %rsi
	movq	%rax, %rdi
.LEHB96:
	call	_ZN5Board4moveC1ERKS0_
.LEHE96:
	leaq	-192(%rbp), %rdx
	movq	-480(%rbp), %rax
	movq	%rdx, %rsi
	movq	%rax, %rdi
.LEHB97:
	call	_ZN5Board9push_moveENS_4moveE
.LEHE97:
	leaq	-192(%rbp), %rax
	movq	%rax, %rdi
	call	_ZN5Board4moveD1Ev
	movl	-484(%rbp), %edx
	movq	-480(%rbp), %rax
	movl	%edx, %esi
	movq	%rax, %rdi
.LEHB98:
	call	_ZN5Board8is_checkEi
.LEHE98:
	xorl	$1, %eax
	testb	%al, %al
	je	.L525
	leaq	-192(%rbp), %rax
	movl	$2, %ebx
	movq	%rax, %r12
	jmp	.L526
.L527:
	movq	%r12, %rdi
	call	_ZN5Board4moveC1Ev
	addq	$56, %r12
	subq	$1, %rbx
.L526:
	testq	%rbx, %rbx
	jns	.L527
	movl	$0, -444(%rbp)
	jmp	.L528
.L529:
	leaq	-192(%rbp), %rcx
	movl	-444(%rbp), %eax
	movslq	%eax, %rdx
	movq	%rdx, %rax
	salq	$3, %rax
	subq	%rdx, %rax
	salq	$3, %rax
	leaq	(%rcx,%rax), %rdx
	leaq	-256(%rbp), %rax
	movq	%rax, %rsi
	movq	%rdx, %rdi
.LEHB99:
	call	_ZN5Board4moveaSERKS0_
	movq	-480(%rbp), %rax
	leaq	88(%rax), %rdx
	movl	-444(%rbp), %eax
	cltq
	movq	%rax, %rsi
	movq	%rdx, %rdi
	call	_ZNSt7__cxx1112basic_stringIcSt11char_traitsIcESaIcEEixEm@PLT
	movzbl	(%rax), %edx
	movl	-444(%rbp), %eax
	movslq	%eax, %rcx
	movq	%rcx, %rax
	salq	$3, %rax
	subq	%rcx, %rax
	salq	$3, %rax
	leaq	-16(%rax), %rax
	addq	%rbp, %rax
	subq	$154, %rax
	movb	%dl, (%rax)
	leaq	-192(%rbp), %rcx
	movl	-444(%rbp), %eax
	movslq	%eax, %rdx
	movq	%rdx, %rax
	salq	$3, %rax
	subq	%rdx, %rax
	salq	$3, %rax
	leaq	(%rcx,%rax), %rdx
	movq	-472(%rbp), %rax
	movq	%rdx, %rsi
	movq	%rax, %rdi
	call	_ZNSt6vectorIN5Board4moveESaIS1_EE9push_backERKS1_
.LEHE99:
	addl	$1, -444(%rbp)
.L528:
	cmpl	$3, -444(%rbp)
	jle	.L529
	leaq	-192(%rbp), %rbx
	addq	$168, %rbx
.L531:
	leaq	-192(%rbp), %rax
	cmpq	%rax, %rbx
	je	.L601
	subq	$56, %rbx
	movq	%rbx, %rdi
	call	_ZN5Board4moveD1Ev
	jmp	.L531
.L601:
	nop
.L525:
	leaq	-256(%rbp), %rdx
	leaq	-192(%rbp), %rax
	movq	%rdx, %rsi
	movq	%rax, %rdi
.LEHB100:
	call	_ZN5Board4moveC1ERKS0_
.LEHE100:
	leaq	-192(%rbp), %rdx
	movq	-480(%rbp), %rax
	movq	%rdx, %rsi
	movq	%rax, %rdi
.LEHB101:
	call	_ZN5Board8pop_moveENS_4moveE
.LEHE101:
	leaq	-192(%rbp), %rax
	movq	%rax, %rdi
	call	_ZN5Board4moveD1Ev
	movl	$0, %ebx
	jmp	.L523
.L524:
	movq	-480(%rbp), %rax
	movl	172(%rax), %eax
	movl	%eax, -420(%rbp)
	leaq	-256(%rbp), %rdx
	leaq	-192(%rbp), %rax
	movq	%rdx, %rsi
	movq	%rax, %rdi
.LEHB102:
	call	_ZN5Board4moveC1ERKS0_
.LEHE102:
	leaq	-192(%rbp), %rdx
	movq	-480(%rbp), %rax
	movq	%rdx, %rsi
	movq	%rax, %rdi
.LEHB103:
	call	_ZN5Board9push_moveENS_4moveE
.LEHE103:
	leaq	-192(%rbp), %rax
	movq	%rax, %rdi
	call	_ZN5Board4moveD1Ev
	movl	-484(%rbp), %edx
	movq	-480(%rbp), %rax
	movl	%edx, %esi
	movq	%rax, %rdi
.LEHB104:
	call	_ZN5Board8is_checkEi
	xorl	$1, %eax
	testb	%al, %al
	je	.L532
	leaq	-256(%rbp), %rdx
	movq	-472(%rbp), %rax
	movq	%rdx, %rsi
	movq	%rax, %rdi
	call	_ZNSt6vectorIN5Board4moveESaIS1_EE9push_backERKS1_
.L532:
	leaq	-256(%rbp), %rdx
	leaq	-192(%rbp), %rax
	movq	%rdx, %rsi
	movq	%rax, %rdi
	call	_ZN5Board4moveC1ERKS0_
.LEHE104:
	leaq	-192(%rbp), %rdx
	movq	-480(%rbp), %rax
	movq	%rdx, %rsi
	movq	%rax, %rdi
.LEHB105:
	call	_ZN5Board8pop_moveENS_4moveE
.LEHE105:
	leaq	-192(%rbp), %rax
	movq	%rax, %rdi
	call	_ZN5Board4moveD1Ev
	movq	-480(%rbp), %rax
	movl	-420(%rbp), %edx
	movl	%edx, 172(%rax)
	movl	$1, %ebx
.L523:
	leaq	-256(%rbp), %rax
	movq	%rax, %rdi
	call	_ZN5Board4moveD1Ev
	cmpl	$1, %ebx
	leaq	-400(%rbp), %rax
	movq	%rax, %rdi
	call	_ZN9__gnu_cxx17__normal_iteratorIPiSt6vectorIiSaIiEEEppEv
.L511:
	leaq	-392(%rbp), %rdx
	leaq	-400(%rbp), %rax
	movq	%rdx, %rsi
	movq	%rax, %rdi
	call	_ZN9__gnu_cxxneIPiSt6vectorIiSaIiEEEEbRKNS_17__normal_iteratorIT_T0_EESA_
	testb	%al, %al
	jne	.L535
	leaq	-288(%rbp), %rax
	movq	%rax, %rdi
	call	_ZNSt6vectorIiSaIiEED1Ev
	leaq	-416(%rbp), %rax
	movq	%rax, %rdi
	call	_ZN9__gnu_cxx17__normal_iteratorIPiSt6vectorIiSaIiEEEppEv
.L502:
	leaq	-408(%rbp), %rdx
	leaq	-416(%rbp), %rax
	movq	%rdx, %rsi
	movq	%rax, %rdi
	call	_ZN9__gnu_cxxneIPiSt6vectorIiSaIiEEEEbRKNS_17__normal_iteratorIT_T0_EESA_
	testb	%al, %al
	jne	.L536
	leaq	-320(%rbp), %rax
	movq	%rax, %rdi
	call	_ZNSt6vectorIiSaIiEED1Ev
	addl	$1, -456(%rbp)
.L501:
	cmpl	$5, -456(%rbp)
	jle	.L537
	movq	-480(%rbp), %rax
	movl	176(%rax), %eax
	andl	$1, %eax
	testl	%eax, %eax
	je	.L538
	cmpl	$0, -484(%rbp)
	jne	.L538
	movq	-480(%rbp), %rax
	movl	$1, %edx
	movl	$61, %esi
	movq	%rax, %rdi
.LEHB106:
	call	_ZN5Board18is_square_attackedEii
	xorl	$1, %eax
	testb	%al, %al
	je	.L539
	movq	-480(%rbp), %rax
	leaq	120(%rax), %rdx
	movb	$48, -320(%rbp)
	leaq	-320(%rbp), %rax
	movq	%rax, %rsi
	movq	%rdx, %rdi
	call	_ZNSt3mapIcySt4lessIcESaISt4pairIKcyEEEixEOc
	movq	(%rax), %rcx
	movq	-480(%rbp), %rax
	movl	$61, %edx
	movq	%rcx, %rsi
	movq	%rax, %rdi
	call	_ZN5Board7get_bitEyi
	testq	%rax, %rax
	jne	.L539
	movq	-480(%rbp), %rax
	movl	$1, %edx
	movl	$62, %esi
	movq	%rax, %rdi
	call	_ZN5Board18is_square_attackedEii
	xorl	$1, %eax
	testb	%al, %al
	je	.L539
	movq	-480(%rbp), %rax
	leaq	120(%rax), %rdx
	movb	$48, -288(%rbp)
	leaq	-288(%rbp), %rax
	movq	%rax, %rsi
	movq	%rdx, %rdi
	call	_ZNSt3mapIcySt4lessIcESaISt4pairIKcyEEEixEOc
	movq	(%rax), %rcx
	movq	-480(%rbp), %rax
	movl	$62, %edx
	movq	%rcx, %rsi
	movq	%rax, %rdi
	call	_ZN5Board7get_bitEyi
	testq	%rax, %rax
	jne	.L539
	movq	-480(%rbp), %rax
	movl	$0, %esi
	movq	%rax, %rdi
	call	_ZN5Board8is_checkEi
	xorl	$1, %eax
	testb	%al, %al
	je	.L539
	movl	$1, %eax
	jmp	.L540
.L539:
	movl	$0, %eax
.L540:
	testb	%al, %al
	je	.L538
	leaq	-192(%rbp), %rax
	movq	-480(%rbp), %rsi
	subq	$8, %rsp
	pushq	$32
	pushq	$0
	pushq	$32
	pushq	$75
	movl	-484(%rbp), %edx
	pushq	%rdx
	movl	$1, %r9d
	movl	$64, %r8d
	movl	$64, %ecx
	movl	$0, %edx
	movq	%rax, %rdi
	.cfi_escape 0x2e,0x30
	call	_ZN5Board8get_moveEbiiiiccyc
.LEHE106:
	addq	$48, %rsp
	leaq	-192(%rbp), %rdx
	movq	-472(%rbp), %rax
	movq	%rdx, %rsi
	movq	%rax, %rdi
.LEHB107:
	.cfi_escape 0x2e,0
	call	_ZNSt6vectorIN5Board4moveESaIS1_EE9push_backERKS1_
.LEHE107:
	leaq	-192(%rbp), %rax
	movq	%rax, %rdi
	call	_ZN5Board4moveD1Ev
.L538:
	movq	-480(%rbp), %rax
	movl	176(%rax), %eax
	andl	$2, %eax
	testl	%eax, %eax
	je	.L541
	cmpl	$0, -484(%rbp)
	jne	.L541
	movq	-480(%rbp), %rax
	movl	$1, %edx
	movl	$59, %esi
	movq	%rax, %rdi
.LEHB108:
	call	_ZN5Board18is_square_attackedEii
	xorl	$1, %eax
	testb	%al, %al
	je	.L542
	movq	-480(%rbp), %rax
	leaq	120(%rax), %rdx
	movb	$48, -384(%rbp)
	leaq	-384(%rbp), %rax
	movq	%rax, %rsi
	movq	%rdx, %rdi
	call	_ZNSt3mapIcySt4lessIcESaISt4pairIKcyEEEixEOc
	movq	(%rax), %rcx
	movq	-480(%rbp), %rax
	movl	$59, %edx
	movq	%rcx, %rsi
	movq	%rax, %rdi
	call	_ZN5Board7get_bitEyi
	testq	%rax, %rax
	jne	.L542
	movq	-480(%rbp), %rax
	movl	$1, %edx
	movl	$58, %esi
	movq	%rax, %rdi
	call	_ZN5Board18is_square_attackedEii
	xorl	$1, %eax
	testb	%al, %al
	je	.L542
	movq	-480(%rbp), %rax
	leaq	120(%rax), %rdx
	movb	$48, -320(%rbp)
	leaq	-320(%rbp), %rax
	movq	%rax, %rsi
	movq	%rdx, %rdi
	call	_ZNSt3mapIcySt4lessIcESaISt4pairIKcyEEEixEOc
	movq	(%rax), %rcx
	movq	-480(%rbp), %rax
	movl	$58, %edx
	movq	%rcx, %rsi
	movq	%rax, %rdi
	call	_ZN5Board7get_bitEyi
	testq	%rax, %rax
	jne	.L542
	movq	-480(%rbp), %rax
	movl	$1, %edx
	movl	$57, %esi
	movq	%rax, %rdi
	call	_ZN5Board18is_square_attackedEii
	xorl	$1, %eax
	testb	%al, %al
	je	.L542
	movq	-480(%rbp), %rax
	leaq	120(%rax), %rdx
	movb	$48, -288(%rbp)
	leaq	-288(%rbp), %rax
	movq	%rax, %rsi
	movq	%rdx, %rdi
	call	_ZNSt3mapIcySt4lessIcESaISt4pairIKcyEEEixEOc
	movq	(%rax), %rcx
	movq	-480(%rbp), %rax
	movl	$57, %edx
	movq	%rcx, %rsi
	movq	%rax, %rdi
	call	_ZN5Board7get_bitEyi
	testq	%rax, %rax
	jne	.L542
	movq	-480(%rbp), %rax
	movl	$0, %esi
	movq	%rax, %rdi
	call	_ZN5Board8is_checkEi
	xorl	$1, %eax
	testb	%al, %al
	je	.L542
	movl	$1, %eax
	jmp	.L543
.L542:
	movl	$0, %eax
.L543:
	testb	%al, %al
	je	.L541
	leaq	-192(%rbp), %rax
	movq	-480(%rbp), %rsi
	subq	$8, %rsp
	pushq	$32
	pushq	$0
	pushq	$32
	pushq	$75
	movl	-484(%rbp), %edx
	pushq	%rdx
	movl	$2, %r9d
	movl	$64, %r8d
	movl	$64, %ecx
	movl	$0, %edx
	movq	%rax, %rdi
	.cfi_escape 0x2e,0x30
	call	_ZN5Board8get_moveEbiiiiccyc
.LEHE108:
	addq	$48, %rsp
	leaq	-192(%rbp), %rdx
	movq	-472(%rbp), %rax
	movq	%rdx, %rsi
	movq	%rax, %rdi
.LEHB109:
	.cfi_escape 0x2e,0
	call	_ZNSt6vectorIN5Board4moveESaIS1_EE9push_backERKS1_
.LEHE109:
	leaq	-192(%rbp), %rax
	movq	%rax, %rdi
	call	_ZN5Board4moveD1Ev
.L541:
	movq	-480(%rbp), %rax
	movl	176(%rax), %eax
	andl	$4, %eax
	testl	%eax, %eax
	je	.L544
	cmpl	$0, -484(%rbp)
	je	.L544
	movq	-480(%rbp), %rax
	movl	$0, %edx
	movl	$5, %esi
	movq	%rax, %rdi
.LEHB110:
	call	_ZN5Board18is_square_attackedEii
	xorl	$1, %eax
	testb	%al, %al
	je	.L545
	movq	-480(%rbp), %rax
	leaq	120(%rax), %rdx
	movb	$49, -320(%rbp)
	leaq	-320(%rbp), %rax
	movq	%rax, %rsi
	movq	%rdx, %rdi
	call	_ZNSt3mapIcySt4lessIcESaISt4pairIKcyEEEixEOc
	movq	(%rax), %rcx
	movq	-480(%rbp), %rax
	movl	$5, %edx
	movq	%rcx, %rsi
	movq	%rax, %rdi
	call	_ZN5Board7get_bitEyi
	testq	%rax, %rax
	jne	.L545
	movq	-480(%rbp), %rax
	movl	$0, %edx
	movl	$6, %esi
	movq	%rax, %rdi
	call	_ZN5Board18is_square_attackedEii
	xorl	$1, %eax
	testb	%al, %al
	je	.L545
	movq	-480(%rbp), %rax
	leaq	120(%rax), %rdx
	movb	$49, -288(%rbp)
	leaq	-288(%rbp), %rax
	movq	%rax, %rsi
	movq	%rdx, %rdi
	call	_ZNSt3mapIcySt4lessIcESaISt4pairIKcyEEEixEOc
	movq	(%rax), %rcx
	movq	-480(%rbp), %rax
	movl	$6, %edx
	movq	%rcx, %rsi
	movq	%rax, %rdi
	call	_ZN5Board7get_bitEyi
	testq	%rax, %rax
	jne	.L545
	movq	-480(%rbp), %rax
	movl	$1, %esi
	movq	%rax, %rdi
	call	_ZN5Board8is_checkEi
	xorl	$1, %eax
	testb	%al, %al
	je	.L545
	movl	$1, %eax
	jmp	.L546
.L545:
	movl	$0, %eax
.L546:
	testb	%al, %al
	je	.L544
	leaq	-192(%rbp), %rax
	movq	-480(%rbp), %rsi
	subq	$8, %rsp
	pushq	$32
	pushq	$0
	pushq	$32
	pushq	$107
	movl	-484(%rbp), %edx
	pushq	%rdx
	movl	$4, %r9d
	movl	$64, %r8d
	movl	$64, %ecx
	movl	$0, %edx
	movq	%rax, %rdi
	.cfi_escape 0x2e,0x30
	call	_ZN5Board8get_moveEbiiiiccyc
.LEHE110:
	addq	$48, %rsp
	leaq	-192(%rbp), %rdx
	movq	-472(%rbp), %rax
	movq	%rdx, %rsi
	movq	%rax, %rdi
.LEHB111:
	.cfi_escape 0x2e,0
	call	_ZNSt6vectorIN5Board4moveESaIS1_EE9push_backERKS1_
.LEHE111:
	leaq	-192(%rbp), %rax
	movq	%rax, %rdi
	call	_ZN5Board4moveD1Ev
.L544:
	movq	-480(%rbp), %rax
	movl	176(%rax), %eax
	andl	$8, %eax
	testl	%eax, %eax
	je	.L547
	cmpl	$0, -484(%rbp)
	je	.L547
	movq	-480(%rbp), %rax
	movl	$0, %edx
	movl	$3, %esi
	movq	%rax, %rdi
.LEHB112:
	call	_ZN5Board18is_square_attackedEii
	xorl	$1, %eax
	testb	%al, %al
	je	.L548
	movq	-480(%rbp), %rax
	leaq	120(%rax), %rdx
	movb	$49, -384(%rbp)
	leaq	-384(%rbp), %rax
	movq	%rax, %rsi
	movq	%rdx, %rdi
	call	_ZNSt3mapIcySt4lessIcESaISt4pairIKcyEEEixEOc
	movq	(%rax), %rcx
	movq	-480(%rbp), %rax
	movl	$3, %edx
	movq	%rcx, %rsi
	movq	%rax, %rdi
	call	_ZN5Board7get_bitEyi
	testq	%rax, %rax
	jne	.L548
	movq	-480(%rbp), %rax
	movl	$0, %edx
	movl	$2, %esi
	movq	%rax, %rdi
	call	_ZN5Board18is_square_attackedEii
	xorl	$1, %eax
	testb	%al, %al
	je	.L548
	movq	-480(%rbp), %rax
	leaq	120(%rax), %rdx
	movb	$49, -320(%rbp)
	leaq	-320(%rbp), %rax
	movq	%rax, %rsi
	movq	%rdx, %rdi
	call	_ZNSt3mapIcySt4lessIcESaISt4pairIKcyEEEixEOc
	movq	(%rax), %rcx
	movq	-480(%rbp), %rax
	movl	$2, %edx
	movq	%rcx, %rsi
	movq	%rax, %rdi
	call	_ZN5Board7get_bitEyi
	testq	%rax, %rax
	jne	.L548
	movq	-480(%rbp), %rax
	movl	$0, %edx
	movl	$1, %esi
	movq	%rax, %rdi
	call	_ZN5Board18is_square_attackedEii
	xorl	$1, %eax
	testb	%al, %al
	je	.L548
	movq	-480(%rbp), %rax
	leaq	120(%rax), %rdx
	movb	$49, -288(%rbp)
	leaq	-288(%rbp), %rax
	movq	%rax, %rsi
	movq	%rdx, %rdi
	call	_ZNSt3mapIcySt4lessIcESaISt4pairIKcyEEEixEOc
	movq	(%rax), %rcx
	movq	-480(%rbp), %rax
	movl	$1, %edx
	movq	%rcx, %rsi
	movq	%rax, %rdi
	call	_ZN5Board7get_bitEyi
	testq	%rax, %rax
	jne	.L548
	movq	-480(%rbp), %rax
	movl	$1, %esi
	movq	%rax, %rdi
	call	_ZN5Board8is_checkEi
	xorl	$1, %eax
	testb	%al, %al
	je	.L548
	movl	$1, %eax
	jmp	.L549
.L548:
	movl	$0, %eax
.L549:
	testb	%al, %al
	je	.L547
	leaq	-192(%rbp), %rax
	movq	-480(%rbp), %rsi
	subq	$8, %rsp
	pushq	$32
	pushq	$0
	pushq	$32
	pushq	$107
	movl	-484(%rbp), %edx
	pushq	%rdx
	movl	$8, %r9d
	movl	$64, %r8d
	movl	$64, %ecx
	movl	$0, %edx
	movq	%rax, %rdi
	.cfi_escape 0x2e,0x30
	call	_ZN5Board8get_moveEbiiiiccyc
.LEHE112:
	addq	$48, %rsp
	leaq	-192(%rbp), %rdx
	movq	-472(%rbp), %rax
	movq	%rdx, %rsi
	movq	%rax, %rdi
.LEHB113:
	.cfi_escape 0x2e,0
	call	_ZNSt6vectorIN5Board4moveESaIS1_EE9push_backERKS1_
.LEHE113:
	leaq	-192(%rbp), %rax
	movq	%rax, %rdi
	call	_ZN5Board4moveD1Ev
.L547:
	movq	-480(%rbp), %rax
	movl	172(%rax), %eax
	cmpl	$64, %eax
	je	.L602
	cmpl	$0, -484(%rbp)
	sete	%al
	movzbl	%al, %edx
	movq	-480(%rbp), %rax
	movl	172(%rax), %ecx
	movq	-480(%rbp), %rax
	movslq	%ecx, %rcx
	movslq	%edx, %rdx
	salq	$6, %rdx
	addq	%rcx, %rdx
	addq	$32, %rdx
	movq	8(%rax,%rdx,8), %rax
	movq	%rax, -360(%rbp)
	movq	-480(%rbp), %rax
	leaq	120(%rax), %rbx
	movq	-480(%rbp), %rax
	leaq	24(%rax), %rdx
	movl	-460(%rbp), %eax
	addl	$5, %eax
	cltq
	movq	%rax, %rsi
	movq	%rdx, %rdi
.LEHB114:
	call	_ZNSt7__cxx1112basic_stringIcSt11char_traitsIcESaIcEEixEm@PLT
	movq	%rax, %rsi
	movq	%rbx, %rdi
	call	_ZNSt3mapIcySt4lessIcESaISt4pairIKcyEEEixERS3_
	movq	(%rax), %rax
	andq	%rax, -360(%rbp)
	cmpq	$0, -360(%rbp)
	je	.L602
	leaq	-288(%rbp), %rax
	movq	-360(%rbp), %rdx
	movq	-480(%rbp), %rcx
	movq	%rcx, %rsi
	movq	%rax, %rdi
	call	_ZN5Board13get_positionsEy
.LEHE114:
	leaq	-288(%rbp), %rax
	movq	%rax, -352(%rbp)
	movq	-352(%rbp), %rax
	movq	%rax, %rdi
	call	_ZNSt6vectorIiSaIiEE5beginEv
	movq	%rax, -384(%rbp)
	movq	-352(%rbp), %rax
	movq	%rax, %rdi
	call	_ZNSt6vectorIiSaIiEE3endEv
	movq	%rax, -320(%rbp)
	jmp	.L551
.L553:
	leaq	-384(%rbp), %rax
	movq	%rax, %rdi
	call	_ZNK9__gnu_cxx17__normal_iteratorIPiSt6vectorIiSaIiEEEdeEv
	movl	(%rax), %eax
	movl	%eax, -440(%rbp)
	movq	-480(%rbp), %rax
	leaq	24(%rax), %rdx
	movl	$11, %eax
	subl	-460(%rbp), %eax
	cltq
	movq	%rax, %rsi
	movq	%rdx, %rdi
.LEHB115:
	call	_ZNSt7__cxx1112basic_stringIcSt11char_traitsIcESaIcEEixEm@PLT
	movzbl	(%rax), %eax
	movsbl	%al, %ebx
	movq	-480(%rbp), %rax
	leaq	24(%rax), %rdx
	movl	-460(%rbp), %eax
	addl	$5, %eax
	cltq
	movq	%rax, %rsi
	movq	%rdx, %rdi
	call	_ZNSt7__cxx1112basic_stringIcSt11char_traitsIcESaIcEEixEm@PLT
	movzbl	(%rax), %eax
	movsbl	%al, %ecx
	movq	-480(%rbp), %rax
	movl	172(%rax), %edi
	leaq	-256(%rbp), %rax
	movl	-440(%rbp), %edx
	movq	-480(%rbp), %rsi
	subq	$8, %rsp
	pushq	$32
	pushq	$0
	pushq	%rbx
	pushq	%rcx
	movl	-484(%rbp), %ecx
	pushq	%rcx
	movl	$0, %r9d
	movl	%edi, %r8d
	movl	%edx, %ecx
	movl	$1, %edx
	movq	%rax, %rdi
	.cfi_escape 0x2e,0x30
	call	_ZN5Board8get_moveEbiiiiccyc
.LEHE115:
	addq	$48, %rsp
	movq	-480(%rbp), %rax
	movl	172(%rax), %eax
	movl	%eax, -436(%rbp)
	movq	-480(%rbp), %rax
	movl	176(%rax), %eax
	movl	%eax, -432(%rbp)
	leaq	-256(%rbp), %rdx
	leaq	-192(%rbp), %rax
	movq	%rdx, %rsi
	movq	%rax, %rdi
.LEHB116:
	.cfi_escape 0x2e,0
	call	_ZN5Board4moveC1ERKS0_
.LEHE116:
	leaq	-192(%rbp), %rdx
	movq	-480(%rbp), %rax
	movq	%rdx, %rsi
	movq	%rax, %rdi
.LEHB117:
	call	_ZN5Board9push_moveENS_4moveE
.LEHE117:
	leaq	-192(%rbp), %rax
	movq	%rax, %rdi
	call	_ZN5Board4moveD1Ev
	movl	-484(%rbp), %edx
	movq	-480(%rbp), %rax
	movl	%edx, %esi
	movq	%rax, %rdi
.LEHB118:
	call	_ZN5Board8is_checkEi
	xorl	$1, %eax
	testb	%al, %al
	je	.L552
	leaq	-256(%rbp), %rdx
	movq	-472(%rbp), %rax
	movq	%rdx, %rsi
	movq	%rax, %rdi
	call	_ZNSt6vectorIN5Board4moveESaIS1_EE9push_backERKS1_
.L552:
	leaq	-256(%rbp), %rdx
	leaq	-192(%rbp), %rax
	movq	%rdx, %rsi
	movq	%rax, %rdi
	call	_ZN5Board4moveC1ERKS0_
.LEHE118:
	leaq	-192(%rbp), %rdx
	movq	-480(%rbp), %rax
	movq	%rdx, %rsi
	movq	%rax, %rdi
.LEHB119:
	call	_ZN5Board8pop_moveENS_4moveE
.LEHE119:
	leaq	-192(%rbp), %rax
	movq	%rax, %rdi
	call	_ZN5Board4moveD1Ev
	movq	-480(%rbp), %rax
	movl	-432(%rbp), %edx
	movl	%edx, 176(%rax)
	movq	-480(%rbp), %rax
	movl	-436(%rbp), %edx
	movl	%edx, 172(%rax)
	leaq	-256(%rbp), %rax
	movq	%rax, %rdi
	call	_ZN5Board4moveD1Ev
	leaq	-384(%rbp), %rax
	movq	%rax, %rdi
	call	_ZN9__gnu_cxx17__normal_iteratorIPiSt6vectorIiSaIiEEEppEv
.L551:
	leaq	-320(%rbp), %rdx
	leaq	-384(%rbp), %rax
	movq	%rdx, %rsi
	movq	%rax, %rdi
	call	_ZN9__gnu_cxxneIPiSt6vectorIiSaIiEEEEbRKNS_17__normal_iteratorIT_T0_EESA_
	testb	%al, %al
	jne	.L553
	leaq	-288(%rbp), %rax
	movq	%rax, %rdi
	call	_ZNSt6vectorIiSaIiEED1Ev
	jmp	.L602
.L584:
	endbr64
	movq	%rax, %rbx
	leaq	-192(%rbp), %rax
	movq	%rax, %rdi
	call	_ZN5Board4moveD1Ev
	jmp	.L556
.L585:
	endbr64
	movq	%rax, %r12
	leaq	-192(%rbp), %rbx
	addq	$168, %rbx
.L559:
	leaq	-192(%rbp), %rax
	cmpq	%rax, %rbx
	je	.L603
	subq	$56, %rbx
	movq	%rbx, %rdi
	call	_ZN5Board4moveD1Ev
	jmp	.L559
.L603:
	nop
	movq	%r12, %rbx
	jmp	.L556
.L586:
	endbr64
	movq	%rax, %rbx
	leaq	-192(%rbp), %rax
	movq	%rax, %rdi
	call	_ZN5Board4moveD1Ev
	jmp	.L556
.L587:
	endbr64
	movq	%rax, %rbx
	leaq	-192(%rbp), %rax
	movq	%rax, %rdi
	call	_ZN5Board4moveD1Ev
	jmp	.L556
.L588:
	endbr64
	movq	%rax, %r12
	leaq	-192(%rbp), %rbx
	addq	$168, %rbx
.L564:
	leaq	-192(%rbp), %rax
	cmpq	%rax, %rbx
	je	.L604
	subq	$56, %rbx
	movq	%rbx, %rdi
	call	_ZN5Board4moveD1Ev
	jmp	.L564
.L604:
	nop
	movq	%r12, %rbx
	jmp	.L556
.L589:
	endbr64
	movq	%rax, %rbx
	leaq	-192(%rbp), %rax
	movq	%rax, %rdi
	call	_ZN5Board4moveD1Ev
	jmp	.L556
.L590:
	endbr64
	movq	%rax, %rbx
	leaq	-192(%rbp), %rax
	movq	%rax, %rdi
	call	_ZN5Board4moveD1Ev
	jmp	.L556
.L591:
	endbr64
	movq	%rax, %rbx
	leaq	-192(%rbp), %rax
	movq	%rax, %rdi
	call	_ZN5Board4moveD1Ev
	jmp	.L556
.L583:
	endbr64
	movq	%rax, %rbx
.L556:
	leaq	-256(%rbp), %rax
	movq	%rax, %rdi
	call	_ZN5Board4moveD1Ev
	jmp	.L568
.L582:
	endbr64
	movq	%rax, %rbx
.L568:
	leaq	-288(%rbp), %rax
	movq	%rax, %rdi
	call	_ZNSt6vectorIiSaIiEED1Ev
	jmp	.L569
.L581:
	endbr64
	movq	%rax, %rbx
.L569:
	leaq	-320(%rbp), %rax
	movq	%rax, %rdi
	call	_ZNSt6vectorIiSaIiEED1Ev
	jmp	.L570
.L592:
	endbr64
	movq	%rax, %rbx
	leaq	-192(%rbp), %rax
	movq	%rax, %rdi
	call	_ZN5Board4moveD1Ev
	jmp	.L570
.L593:
	endbr64
	movq	%rax, %rbx
	leaq	-192(%rbp), %rax
	movq	%rax, %rdi
	call	_ZN5Board4moveD1Ev
	jmp	.L570
.L594:
	endbr64
	movq	%rax, %rbx
	leaq	-192(%rbp), %rax
	movq	%rax, %rdi
	call	_ZN5Board4moveD1Ev
	jmp	.L570
.L595:
	endbr64
	movq	%rax, %rbx
	leaq	-192(%rbp), %rax
	movq	%rax, %rdi
	call	_ZN5Board4moveD1Ev
	jmp	.L570
.L598:
	endbr64
	movq	%rax, %rbx
	leaq	-192(%rbp), %rax
	movq	%rax, %rdi
	call	_ZN5Board4moveD1Ev
	jmp	.L576
.L599:
	endbr64
	movq	%rax, %rbx
	leaq	-192(%rbp), %rax
	movq	%rax, %rdi
	call	_ZN5Board4moveD1Ev
	jmp	.L576
.L597:
	endbr64
	movq	%rax, %rbx
.L576:
	leaq	-256(%rbp), %rax
	movq	%rax, %rdi
	call	_ZN5Board4moveD1Ev
	jmp	.L578
.L596:
	endbr64
	movq	%rax, %rbx
.L578:
	leaq	-288(%rbp), %rax
	movq	%rax, %rdi
	call	_ZNSt6vectorIiSaIiEED1Ev
	jmp	.L570
.L580:
	endbr64
	movq	%rax, %rbx
.L570:
	movq	-472(%rbp), %rax
	movq	%rax, %rdi
	call	_ZNSt6vectorIN5Board4moveESaIS1_EED1Ev
	movq	%rbx, %rax
	movq	%rax, %rdi
.LEHB120:
	call	_Unwind_Resume@PLT
.LEHE120:
.L602:
	nop
	movq	-24(%rbp), %rax
	subq	%fs:40, %rax
	je	.L579
	call	__stack_chk_fail@PLT
.L579:
	movq	-472(%rbp), %rax
	leaq	-16(%rbp), %rsp
	popq	%rbx
	popq	%r12
	popq	%rbp
	.cfi_def_cfa 7, 8
	ret
	.cfi_endproc
.LFE9822:
	.section	.gcc_except_table
.LLSDA9822:
	.byte	0xff
	.byte	0xff
	.byte	0x1
	.uleb128 .LLSDACSE9822-.LLSDACSB9822
.LLSDACSB9822:
	.uleb128 .LEHB87-.LFB9822
	.uleb128 .LEHE87-.LEHB87
	.uleb128 .L580-.LFB9822
	.uleb128 0
	.uleb128 .LEHB88-.LFB9822
	.uleb128 .LEHE88-.LEHB88
	.uleb128 .L581-.LFB9822
	.uleb128 0
	.uleb128 .LEHB89-.LFB9822
	.uleb128 .LEHE89-.LEHB89
	.uleb128 .L582-.LFB9822
	.uleb128 0
	.uleb128 .LEHB90-.LFB9822
	.uleb128 .LEHE90-.LEHB90
	.uleb128 .L583-.LFB9822
	.uleb128 0
	.uleb128 .LEHB91-.LFB9822
	.uleb128 .LEHE91-.LEHB91
	.uleb128 .L584-.LFB9822
	.uleb128 0
	.uleb128 .LEHB92-.LFB9822
	.uleb128 .LEHE92-.LEHB92
	.uleb128 .L583-.LFB9822
	.uleb128 0
	.uleb128 .LEHB93-.LFB9822
	.uleb128 .LEHE93-.LEHB93
	.uleb128 .L585-.LFB9822
	.uleb128 0
	.uleb128 .LEHB94-.LFB9822
	.uleb128 .LEHE94-.LEHB94
	.uleb128 .L583-.LFB9822
	.uleb128 0
	.uleb128 .LEHB95-.LFB9822
	.uleb128 .LEHE95-.LEHB95
	.uleb128 .L586-.LFB9822
	.uleb128 0
	.uleb128 .LEHB96-.LFB9822
	.uleb128 .LEHE96-.LEHB96
	.uleb128 .L583-.LFB9822
	.uleb128 0
	.uleb128 .LEHB97-.LFB9822
	.uleb128 .LEHE97-.LEHB97
	.uleb128 .L587-.LFB9822
	.uleb128 0
	.uleb128 .LEHB98-.LFB9822
	.uleb128 .LEHE98-.LEHB98
	.uleb128 .L583-.LFB9822
	.uleb128 0
	.uleb128 .LEHB99-.LFB9822
	.uleb128 .LEHE99-.LEHB99
	.uleb128 .L588-.LFB9822
	.uleb128 0
	.uleb128 .LEHB100-.LFB9822
	.uleb128 .LEHE100-.LEHB100
	.uleb128 .L583-.LFB9822
	.uleb128 0
	.uleb128 .LEHB101-.LFB9822
	.uleb128 .LEHE101-.LEHB101
	.uleb128 .L589-.LFB9822
	.uleb128 0
	.uleb128 .LEHB102-.LFB9822
	.uleb128 .LEHE102-.LEHB102
	.uleb128 .L583-.LFB9822
	.uleb128 0
	.uleb128 .LEHB103-.LFB9822
	.uleb128 .LEHE103-.LEHB103
	.uleb128 .L590-.LFB9822
	.uleb128 0
	.uleb128 .LEHB104-.LFB9822
	.uleb128 .LEHE104-.LEHB104
	.uleb128 .L583-.LFB9822
	.uleb128 0
	.uleb128 .LEHB105-.LFB9822
	.uleb128 .LEHE105-.LEHB105
	.uleb128 .L591-.LFB9822
	.uleb128 0
	.uleb128 .LEHB106-.LFB9822
	.uleb128 .LEHE106-.LEHB106
	.uleb128 .L580-.LFB9822
	.uleb128 0
	.uleb128 .LEHB107-.LFB9822
	.uleb128 .LEHE107-.LEHB107
	.uleb128 .L592-.LFB9822
	.uleb128 0
	.uleb128 .LEHB108-.LFB9822
	.uleb128 .LEHE108-.LEHB108
	.uleb128 .L580-.LFB9822
	.uleb128 0
	.uleb128 .LEHB109-.LFB9822
	.uleb128 .LEHE109-.LEHB109
	.uleb128 .L593-.LFB9822
	.uleb128 0
	.uleb128 .LEHB110-.LFB9822
	.uleb128 .LEHE110-.LEHB110
	.uleb128 .L580-.LFB9822
	.uleb128 0
	.uleb128 .LEHB111-.LFB9822
	.uleb128 .LEHE111-.LEHB111
	.uleb128 .L594-.LFB9822
	.uleb128 0
	.uleb128 .LEHB112-.LFB9822
	.uleb128 .LEHE112-.LEHB112
	.uleb128 .L580-.LFB9822
	.uleb128 0
	.uleb128 .LEHB113-.LFB9822
	.uleb128 .LEHE113-.LEHB113
	.uleb128 .L595-.LFB9822
	.uleb128 0
	.uleb128 .LEHB114-.LFB9822
	.uleb128 .LEHE114-.LEHB114
	.uleb128 .L580-.LFB9822
	.uleb128 0
	.uleb128 .LEHB115-.LFB9822
	.uleb128 .LEHE115-.LEHB115
	.uleb128 .L596-.LFB9822
	.uleb128 0
	.uleb128 .LEHB116-.LFB9822
	.uleb128 .LEHE116-.LEHB116
	.uleb128 .L597-.LFB9822
	.uleb128 0
	.uleb128 .LEHB117-.LFB9822
	.uleb128 .LEHE117-.LEHB117
	.uleb128 .L598-.LFB9822
	.uleb128 0
	.uleb128 .LEHB118-.LFB9822
	.uleb128 .LEHE118-.LEHB118
	.uleb128 .L597-.LFB9822
	.uleb128 0
	.uleb128 .LEHB119-.LFB9822
	.uleb128 .LEHE119-.LEHB119
	.uleb128 .L599-.LFB9822
	.uleb128 0
	.uleb128 .LEHB120-.LFB9822
	.uleb128 .LEHE120-.LEHB120
	.uleb128 0
	.uleb128 0
.LLSDACSE9822:
	.text
	.size	_ZN5Board15get_legal_movesEi, .-_ZN5Board15get_legal_movesEi
	.section	.text._ZSt3powIiiEN9__gnu_cxx11__promote_2IT_T0_NS0_9__promoteIS2_XsrSt12__is_integerIS2_E7__valueEE6__typeENS4_IS3_XsrS5_IS3_E7__valueEE6__typeEE6__typeES2_S3_,"axG",@progbits,_ZSt3powIiiEN9__gnu_cxx11__promote_2IT_T0_NS0_9__promoteIS2_XsrSt12__is_integerIS2_E7__valueEE6__typeENS4_IS3_XsrS5_IS3_E7__valueEE6__typeEE6__typeES2_S3_,comdat
	.weak	_ZSt3powIiiEN9__gnu_cxx11__promote_2IT_T0_NS0_9__promoteIS2_XsrSt12__is_integerIS2_E7__valueEE6__typeENS4_IS3_XsrS5_IS3_E7__valueEE6__typeEE6__typeES2_S3_
	.type	_ZSt3powIiiEN9__gnu_cxx11__promote_2IT_T0_NS0_9__promoteIS2_XsrSt12__is_integerIS2_E7__valueEE6__typeENS4_IS3_XsrS5_IS3_E7__valueEE6__typeEE6__typeES2_S3_, @function
_ZSt3powIiiEN9__gnu_cxx11__promote_2IT_T0_NS0_9__promoteIS2_XsrSt12__is_integerIS2_E7__valueEE6__typeENS4_IS3_XsrS5_IS3_E7__valueEE6__typeEE6__typeES2_S3_:
.LFB9844:
	.cfi_startproc
	endbr64
	pushq	%rbp
	.cfi_def_cfa_offset 16
	.cfi_offset 6, -16
	movq	%rsp, %rbp
	.cfi_def_cfa_register 6
	subq	$16, %rsp
	movl	%edi, -4(%rbp)
	movl	%esi, -8(%rbp)
	pxor	%xmm0, %xmm0
	cvtsi2sdl	-8(%rbp), %xmm0
	pxor	%xmm2, %xmm2
	cvtsi2sdl	-4(%rbp), %xmm2
	movq	%xmm2, %rax
	movapd	%xmm0, %xmm1
	movq	%rax, %xmm0
	call	pow@PLT
	movq	%xmm0, %rax
	movq	%rax, %xmm0
	leave
	.cfi_def_cfa 7, 8
	ret
	.cfi_endproc
.LFE9844:
	.size	_ZSt3powIiiEN9__gnu_cxx11__promote_2IT_T0_NS0_9__promoteIS2_XsrSt12__is_integerIS2_E7__valueEE6__typeENS4_IS3_XsrS5_IS3_E7__valueEE6__typeEE6__typeES2_S3_, .-_ZSt3powIiiEN9__gnu_cxx11__promote_2IT_T0_NS0_9__promoteIS2_XsrSt12__is_integerIS2_E7__valueEE6__typeENS4_IS3_XsrS5_IS3_E7__valueEE6__typeEE6__typeES2_S3_
	.text
	.align 2
	.globl	_ZN5Board9push_moveENS_4moveE
	.type	_ZN5Board9push_moveENS_4moveE, @function
_ZN5Board9push_moveENS_4moveE:
.LFB9843:
	.cfi_startproc
	endbr64
	pushq	%rbp
	.cfi_def_cfa_offset 16
	.cfi_offset 6, -16
	movq	%rsp, %rbp
	.cfi_def_cfa_register 6
	pushq	%rbx
	subq	$40, %rsp
	.cfi_offset 3, -24
	movq	%rdi, -40(%rbp)
	movq	%rsi, -48(%rbp)
	movq	%fs:40, %rax
	movq	%rax, -24(%rbp)
	xorl	%eax, %eax
	movq	-48(%rbp), %rax
	movl	12(%rax), %eax
	testl	%eax, %eax
	jne	.L608
	movq	-48(%rbp), %rax
	movl	4(%rax), %ebx
	movq	-40(%rbp), %rax
	addq	$120, %rax
	movq	-48(%rbp), %rdx
	addq	$20, %rdx
	movq	%rdx, %rsi
	movq	%rax, %rdi
	call	_ZNSt3mapIcySt4lessIcESaISt4pairIKcyEEEixERS3_
	movq	%rax, %rcx
	movq	-40(%rbp), %rax
	movl	%ebx, %edx
	movq	%rcx, %rsi
	movq	%rax, %rdi
	call	_ZN5Board10remove_bitERyi
	movq	-48(%rbp), %rax
	movl	8(%rax), %ebx
	movq	-40(%rbp), %rax
	addq	$120, %rax
	movq	-48(%rbp), %rdx
	addq	$20, %rdx
	movq	%rdx, %rsi
	movq	%rax, %rdi
	call	_ZNSt3mapIcySt4lessIcESaISt4pairIKcyEEEixERS3_
	movq	%rax, %rcx
	movq	-40(%rbp), %rax
	movl	%ebx, %edx
	movq	%rcx, %rsi
	movq	%rax, %rdi
	call	_ZN5Board7set_bitERyi
	movq	-40(%rbp), %rax
	movl	$64, 172(%rax)
	movq	-48(%rbp), %rax
	movzbl	20(%rax), %eax
	cmpb	$112, %al
	je	.L609
	movq	-48(%rbp), %rax
	movzbl	20(%rax), %eax
	cmpb	$80, %al
	jne	.L610
.L609:
	movq	-48(%rbp), %rax
	movl	8(%rax), %edx
	movq	-48(%rbp), %rax
	movl	4(%rax), %ecx
	movl	%edx, %eax
	subl	%ecx, %eax
	movl	$2, %esi
	movl	%eax, %edi
	call	_ZSt3powIiiEN9__gnu_cxx11__promote_2IT_T0_NS0_9__promoteIS2_XsrSt12__is_integerIS2_E7__valueEE6__typeENS4_IS3_XsrS5_IS3_E7__valueEE6__typeEE6__typeES2_S3_
	movq	%xmm0, %rax
	movq	%rax, %xmm1
	ucomisd	.LC84(%rip), %xmm1
	jp	.L610
	movq	%rax, %xmm2
	ucomisd	.LC84(%rip), %xmm2
	jne	.L610
	movl	$1, %eax
	jmp	.L612
.L610:
	movl	$0, %eax
.L612:
	testb	%al, %al
	je	.L613
	movq	-48(%rbp), %rax
	movzbl	20(%rax), %eax
	cmpb	$80, %al
	jne	.L614
	movq	-48(%rbp), %rax
	movl	8(%rax), %eax
	addl	$8, %eax
	jmp	.L615
.L614:
	movq	-48(%rbp), %rax
	movl	8(%rax), %eax
	subl	$8, %eax
.L615:
	movq	-40(%rbp), %rdx
	movl	%eax, 172(%rdx)
.L613:
	movq	-48(%rbp), %rax
	movzbl	20(%rax), %eax
	cmpb	$75, %al
	je	.L616
	movq	-48(%rbp), %rax
	movzbl	20(%rax), %eax
	cmpb	$82, %al
	jne	.L617
	movq	-48(%rbp), %rax
	movl	12(%rax), %eax
	andl	$3, %eax
	testl	%eax, %eax
	je	.L617
.L616:
	movq	-40(%rbp), %rax
	movl	176(%rax), %eax
	xorl	$3, %eax
	movl	%eax, %edx
	movq	-40(%rbp), %rax
	movl	%edx, 176(%rax)
	jmp	.L618
.L617:
	movq	-48(%rbp), %rax
	movzbl	20(%rax), %eax
	cmpb	$107, %al
	je	.L619
	movq	-48(%rbp), %rax
	movzbl	20(%rax), %eax
	cmpb	$114, %al
	jne	.L618
	movq	-48(%rbp), %rax
	movl	12(%rax), %eax
	andl	$12, %eax
	testl	%eax, %eax
	je	.L618
.L619:
	movq	-40(%rbp), %rax
	movl	176(%rax), %eax
	xorl	$12, %eax
	movl	%eax, %edx
	movq	-40(%rbp), %rax
	movl	%edx, 176(%rax)
.L618:
	movq	-48(%rbp), %rax
	movzbl	(%rax), %eax
	testb	%al, %al
	je	.L620
	movq	-48(%rbp), %rax
	movzbl	1(%rax), %eax
	testb	%al, %al
	je	.L621
	movq	-48(%rbp), %rax
	movl	16(%rax), %eax
	testl	%eax, %eax
	jne	.L622
	movq	-48(%rbp), %rax
	movl	8(%rax), %eax
	leal	8(%rax), %ebx
	movq	-40(%rbp), %rax
	leaq	120(%rax), %rdx
	movb	$112, -25(%rbp)
	leaq	-25(%rbp), %rax
	movq	%rax, %rsi
	movq	%rdx, %rdi
	call	_ZNSt3mapIcySt4lessIcESaISt4pairIKcyEEEixEOc
	movq	%rax, %rcx
	movq	-40(%rbp), %rax
	movl	%ebx, %edx
	movq	%rcx, %rsi
	movq	%rax, %rdi
	call	_ZN5Board10remove_bitERyi
	jmp	.L620
.L622:
	movq	-48(%rbp), %rax
	movl	8(%rax), %eax
	leal	-8(%rax), %ebx
	movq	-40(%rbp), %rax
	leaq	120(%rax), %rdx
	movb	$80, -25(%rbp)
	leaq	-25(%rbp), %rax
	movq	%rax, %rsi
	movq	%rdx, %rdi
	call	_ZNSt3mapIcySt4lessIcESaISt4pairIKcyEEEixEOc
	movq	%rax, %rcx
	movq	-40(%rbp), %rax
	movl	%ebx, %edx
	movq	%rcx, %rsi
	movq	%rax, %rdi
	call	_ZN5Board10remove_bitERyi
	jmp	.L620
.L621:
	movq	-48(%rbp), %rax
	movl	8(%rax), %ebx
	movq	-40(%rbp), %rax
	addq	$120, %rax
	movq	-48(%rbp), %rdx
	addq	$21, %rdx
	movq	%rdx, %rsi
	movq	%rax, %rdi
	call	_ZNSt3mapIcySt4lessIcESaISt4pairIKcyEEEixERS3_
	movq	%rax, %rcx
	movq	-40(%rbp), %rax
	movl	%ebx, %edx
	movq	%rcx, %rsi
	movq	%rax, %rdi
	call	_ZN5Board10remove_bitERyi
.L620:
	movq	-48(%rbp), %rax
	movzbl	22(%rax), %eax
	cmpb	$32, %al
	je	.L623
	movq	-48(%rbp), %rax
	movl	8(%rax), %ebx
	movq	-40(%rbp), %rax
	addq	$120, %rax
	movq	-48(%rbp), %rdx
	addq	$20, %rdx
	movq	%rdx, %rsi
	movq	%rax, %rdi
	call	_ZNSt3mapIcySt4lessIcESaISt4pairIKcyEEEixERS3_
	movq	%rax, %rcx
	movq	-40(%rbp), %rax
	movl	%ebx, %edx
	movq	%rcx, %rsi
	movq	%rax, %rdi
	call	_ZN5Board10remove_bitERyi
	movq	-48(%rbp), %rax
	movl	8(%rax), %ebx
	movq	-40(%rbp), %rax
	addq	$120, %rax
	movq	-48(%rbp), %rdx
	addq	$22, %rdx
	movq	%rdx, %rsi
	movq	%rax, %rdi
	call	_ZNSt3mapIcySt4lessIcESaISt4pairIKcyEEEixERS3_
	movq	%rax, %rcx
	movq	-40(%rbp), %rax
	movl	%ebx, %edx
	movq	%rcx, %rsi
	movq	%rax, %rdi
	call	_ZN5Board7set_bitERyi
	jmp	.L623
.L608:
	movq	-48(%rbp), %rax
	movl	12(%rax), %eax
	cmpl	$1, %eax
	jne	.L624
	movq	-40(%rbp), %rax
	leaq	120(%rax), %rdx
	movb	$75, -25(%rbp)
	leaq	-25(%rbp), %rax
	movq	%rax, %rsi
	movq	%rdx, %rdi
	call	_ZNSt3mapIcySt4lessIcESaISt4pairIKcyEEEixEOc
	movq	%rax, %rcx
	movq	-40(%rbp), %rax
	movl	$60, %edx
	movq	%rcx, %rsi
	movq	%rax, %rdi
	call	_ZN5Board10remove_bitERyi
	movq	-40(%rbp), %rax
	leaq	120(%rax), %rdx
	movb	$75, -25(%rbp)
	leaq	-25(%rbp), %rax
	movq	%rax, %rsi
	movq	%rdx, %rdi
	call	_ZNSt3mapIcySt4lessIcESaISt4pairIKcyEEEixEOc
	movq	%rax, %rcx
	movq	-40(%rbp), %rax
	movl	$62, %edx
	movq	%rcx, %rsi
	movq	%rax, %rdi
	call	_ZN5Board7set_bitERyi
	movq	-40(%rbp), %rax
	leaq	120(%rax), %rdx
	movb	$82, -25(%rbp)
	leaq	-25(%rbp), %rax
	movq	%rax, %rsi
	movq	%rdx, %rdi
	call	_ZNSt3mapIcySt4lessIcESaISt4pairIKcyEEEixEOc
	movq	%rax, %rcx
	movq	-40(%rbp), %rax
	movl	$63, %edx
	movq	%rcx, %rsi
	movq	%rax, %rdi
	call	_ZN5Board10remove_bitERyi
	movq	-40(%rbp), %rax
	leaq	120(%rax), %rdx
	movb	$82, -25(%rbp)
	leaq	-25(%rbp), %rax
	movq	%rax, %rsi
	movq	%rdx, %rdi
	call	_ZNSt3mapIcySt4lessIcESaISt4pairIKcyEEEixEOc
	movq	%rax, %rcx
	movq	-40(%rbp), %rax
	movl	$61, %edx
	movq	%rcx, %rsi
	movq	%rax, %rdi
	call	_ZN5Board7set_bitERyi
	movq	-40(%rbp), %rax
	movl	176(%rax), %eax
	xorl	$1, %eax
	movl	%eax, %edx
	movq	-40(%rbp), %rax
	movl	%edx, 176(%rax)
	jmp	.L623
.L624:
	movq	-48(%rbp), %rax
	movl	12(%rax), %eax
	cmpl	$2, %eax
	jne	.L625
	movq	-40(%rbp), %rax
	leaq	120(%rax), %rdx
	movb	$75, -25(%rbp)
	leaq	-25(%rbp), %rax
	movq	%rax, %rsi
	movq	%rdx, %rdi
	call	_ZNSt3mapIcySt4lessIcESaISt4pairIKcyEEEixEOc
	movq	%rax, %rcx
	movq	-40(%rbp), %rax
	movl	$60, %edx
	movq	%rcx, %rsi
	movq	%rax, %rdi
	call	_ZN5Board10remove_bitERyi
	movq	-40(%rbp), %rax
	leaq	120(%rax), %rdx
	movb	$75, -25(%rbp)
	leaq	-25(%rbp), %rax
	movq	%rax, %rsi
	movq	%rdx, %rdi
	call	_ZNSt3mapIcySt4lessIcESaISt4pairIKcyEEEixEOc
	movq	%rax, %rcx
	movq	-40(%rbp), %rax
	movl	$58, %edx
	movq	%rcx, %rsi
	movq	%rax, %rdi
	call	_ZN5Board7set_bitERyi
	movq	-40(%rbp), %rax
	leaq	120(%rax), %rdx
	movb	$82, -25(%rbp)
	leaq	-25(%rbp), %rax
	movq	%rax, %rsi
	movq	%rdx, %rdi
	call	_ZNSt3mapIcySt4lessIcESaISt4pairIKcyEEEixEOc
	movq	%rax, %rcx
	movq	-40(%rbp), %rax
	movl	$56, %edx
	movq	%rcx, %rsi
	movq	%rax, %rdi
	call	_ZN5Board10remove_bitERyi
	movq	-40(%rbp), %rax
	leaq	120(%rax), %rdx
	movb	$82, -25(%rbp)
	leaq	-25(%rbp), %rax
	movq	%rax, %rsi
	movq	%rdx, %rdi
	call	_ZNSt3mapIcySt4lessIcESaISt4pairIKcyEEEixEOc
	movq	%rax, %rcx
	movq	-40(%rbp), %rax
	movl	$59, %edx
	movq	%rcx, %rsi
	movq	%rax, %rdi
	call	_ZN5Board7set_bitERyi
	movq	-40(%rbp), %rax
	movl	176(%rax), %eax
	xorl	$2, %eax
	movl	%eax, %edx
	movq	-40(%rbp), %rax
	movl	%edx, 176(%rax)
	jmp	.L623
.L625:
	movq	-48(%rbp), %rax
	movl	12(%rax), %eax
	cmpl	$4, %eax
	jne	.L626
	movq	-40(%rbp), %rax
	leaq	120(%rax), %rdx
	movb	$107, -25(%rbp)
	leaq	-25(%rbp), %rax
	movq	%rax, %rsi
	movq	%rdx, %rdi
	call	_ZNSt3mapIcySt4lessIcESaISt4pairIKcyEEEixEOc
	movq	%rax, %rcx
	movq	-40(%rbp), %rax
	movl	$4, %edx
	movq	%rcx, %rsi
	movq	%rax, %rdi
	call	_ZN5Board10remove_bitERyi
	movq	-40(%rbp), %rax
	leaq	120(%rax), %rdx
	movb	$107, -25(%rbp)
	leaq	-25(%rbp), %rax
	movq	%rax, %rsi
	movq	%rdx, %rdi
	call	_ZNSt3mapIcySt4lessIcESaISt4pairIKcyEEEixEOc
	movq	%rax, %rcx
	movq	-40(%rbp), %rax
	movl	$6, %edx
	movq	%rcx, %rsi
	movq	%rax, %rdi
	call	_ZN5Board7set_bitERyi
	movq	-40(%rbp), %rax
	leaq	120(%rax), %rdx
	movb	$114, -25(%rbp)
	leaq	-25(%rbp), %rax
	movq	%rax, %rsi
	movq	%rdx, %rdi
	call	_ZNSt3mapIcySt4lessIcESaISt4pairIKcyEEEixEOc
	movq	%rax, %rcx
	movq	-40(%rbp), %rax
	movl	$7, %edx
	movq	%rcx, %rsi
	movq	%rax, %rdi
	call	_ZN5Board10remove_bitERyi
	movq	-40(%rbp), %rax
	leaq	120(%rax), %rdx
	movb	$114, -25(%rbp)
	leaq	-25(%rbp), %rax
	movq	%rax, %rsi
	movq	%rdx, %rdi
	call	_ZNSt3mapIcySt4lessIcESaISt4pairIKcyEEEixEOc
	movq	%rax, %rcx
	movq	-40(%rbp), %rax
	movl	$5, %edx
	movq	%rcx, %rsi
	movq	%rax, %rdi
	call	_ZN5Board7set_bitERyi
	movq	-40(%rbp), %rax
	movl	176(%rax), %eax
	xorl	$4, %eax
	movl	%eax, %edx
	movq	-40(%rbp), %rax
	movl	%edx, 176(%rax)
	jmp	.L623
.L626:
	movq	-48(%rbp), %rax
	movl	12(%rax), %eax
	cmpl	$8, %eax
	jne	.L623
	movq	-40(%rbp), %rax
	leaq	120(%rax), %rdx
	movb	$107, -25(%rbp)
	leaq	-25(%rbp), %rax
	movq	%rax, %rsi
	movq	%rdx, %rdi
	call	_ZNSt3mapIcySt4lessIcESaISt4pairIKcyEEEixEOc
	movq	%rax, %rcx
	movq	-40(%rbp), %rax
	movl	$4, %edx
	movq	%rcx, %rsi
	movq	%rax, %rdi
	call	_ZN5Board10remove_bitERyi
	movq	-40(%rbp), %rax
	leaq	120(%rax), %rdx
	movb	$107, -25(%rbp)
	leaq	-25(%rbp), %rax
	movq	%rax, %rsi
	movq	%rdx, %rdi
	call	_ZNSt3mapIcySt4lessIcESaISt4pairIKcyEEEixEOc
	movq	%rax, %rcx
	movq	-40(%rbp), %rax
	movl	$2, %edx
	movq	%rcx, %rsi
	movq	%rax, %rdi
	call	_ZN5Board7set_bitERyi
	movq	-40(%rbp), %rax
	leaq	120(%rax), %rdx
	movb	$114, -25(%rbp)
	leaq	-25(%rbp), %rax
	movq	%rax, %rsi
	movq	%rdx, %rdi
	call	_ZNSt3mapIcySt4lessIcESaISt4pairIKcyEEEixEOc
	movq	%rax, %rcx
	movq	-40(%rbp), %rax
	movl	$0, %edx
	movq	%rcx, %rsi
	movq	%rax, %rdi
	call	_ZN5Board10remove_bitERyi
	movq	-40(%rbp), %rax
	leaq	120(%rax), %rdx
	movb	$114, -25(%rbp)
	leaq	-25(%rbp), %rax
	movq	%rax, %rsi
	movq	%rdx, %rdi
	call	_ZNSt3mapIcySt4lessIcESaISt4pairIKcyEEEixEOc
	movq	%rax, %rcx
	movq	-40(%rbp), %rax
	movl	$3, %edx
	movq	%rcx, %rsi
	movq	%rax, %rdi
	call	_ZN5Board7set_bitERyi
	movq	-40(%rbp), %rax
	movl	176(%rax), %eax
	xorl	$8, %eax
	movl	%eax, %edx
	movq	-40(%rbp), %rax
	movl	%edx, 176(%rax)
.L623:
	movq	-40(%rbp), %rax
	movl	168(%rax), %eax
	testl	%eax, %eax
	sete	%al
	movzbl	%al, %edx
	movq	-40(%rbp), %rax
	movl	%edx, 168(%rax)
	movq	-40(%rbp), %rax
	movq	%rax, %rdi
	call	_ZN5Board12update_boardEv
	nop
	movq	-24(%rbp), %rax
	subq	%fs:40, %rax
	je	.L627
	call	__stack_chk_fail@PLT
.L627:
	movq	-8(%rbp), %rbx
	leave
	.cfi_def_cfa 7, 8
	ret
	.cfi_endproc
.LFE9843:
	.size	_ZN5Board9push_moveENS_4moveE, .-_ZN5Board9push_moveENS_4moveE
	.align 2
	.globl	_ZN5Board8pop_moveENS_4moveE
	.type	_ZN5Board8pop_moveENS_4moveE, @function
_ZN5Board8pop_moveENS_4moveE:
.LFB9845:
	.cfi_startproc
	endbr64
	pushq	%rbp
	.cfi_def_cfa_offset 16
	.cfi_offset 6, -16
	movq	%rsp, %rbp
	.cfi_def_cfa_register 6
	pushq	%rbx
	subq	$40, %rsp
	.cfi_offset 3, -24
	movq	%rdi, -40(%rbp)
	movq	%rsi, -48(%rbp)
	movq	%fs:40, %rax
	movq	%rax, -24(%rbp)
	xorl	%eax, %eax
	movq	-48(%rbp), %rax
	movl	12(%rax), %eax
	testl	%eax, %eax
	jne	.L630
	movq	-48(%rbp), %rax
	movl	8(%rax), %ebx
	movq	-40(%rbp), %rax
	addq	$120, %rax
	movq	-48(%rbp), %rdx
	addq	$20, %rdx
	movq	%rdx, %rsi
	movq	%rax, %rdi
	call	_ZNSt3mapIcySt4lessIcESaISt4pairIKcyEEEixERS3_
	movq	%rax, %rcx
	movq	-40(%rbp), %rax
	movl	%ebx, %edx
	movq	%rcx, %rsi
	movq	%rax, %rdi
	call	_ZN5Board10remove_bitERyi
	movq	-48(%rbp), %rax
	movl	4(%rax), %ebx
	movq	-40(%rbp), %rax
	addq	$120, %rax
	movq	-48(%rbp), %rdx
	addq	$20, %rdx
	movq	%rdx, %rsi
	movq	%rax, %rdi
	call	_ZNSt3mapIcySt4lessIcESaISt4pairIKcyEEEixERS3_
	movq	%rax, %rcx
	movq	-40(%rbp), %rax
	movl	%ebx, %edx
	movq	%rcx, %rsi
	movq	%rax, %rdi
	call	_ZN5Board7set_bitERyi
.L630:
	movq	-48(%rbp), %rax
	movzbl	21(%rax), %eax
	cmpb	$32, %al
	je	.L631
	movq	-48(%rbp), %rax
	movzbl	1(%rax), %eax
	xorl	$1, %eax
	testb	%al, %al
	je	.L631
	movq	-48(%rbp), %rax
	movl	8(%rax), %ebx
	movq	-40(%rbp), %rax
	addq	$120, %rax
	movq	-48(%rbp), %rdx
	addq	$21, %rdx
	movq	%rdx, %rsi
	movq	%rax, %rdi
	call	_ZNSt3mapIcySt4lessIcESaISt4pairIKcyEEEixERS3_
	movq	%rax, %rcx
	movq	-40(%rbp), %rax
	movl	%ebx, %edx
	movq	%rcx, %rsi
	movq	%rax, %rdi
	call	_ZN5Board7set_bitERyi
.L631:
	movq	-48(%rbp), %rax
	movzbl	1(%rax), %eax
	testb	%al, %al
	je	.L632
	movq	-48(%rbp), %rax
	movzbl	21(%rax), %eax
	movb	%al, -29(%rbp)
	movl	$8, -28(%rbp)
	movq	-40(%rbp), %rax
	movl	168(%rax), %eax
	testl	%eax, %eax
	je	.L633
	movl	$-8, -28(%rbp)
.L633:
	movq	-48(%rbp), %rax
	movl	8(%rax), %edx
	movl	-28(%rbp), %eax
	leal	(%rdx,%rax), %ebx
	movq	-40(%rbp), %rax
	leaq	120(%rax), %rdx
	leaq	-29(%rbp), %rax
	movq	%rax, %rsi
	movq	%rdx, %rdi
	call	_ZNSt3mapIcySt4lessIcESaISt4pairIKcyEEEixERS3_
	movq	%rax, %rcx
	movq	-40(%rbp), %rax
	movl	%ebx, %edx
	movq	%rcx, %rsi
	movq	%rax, %rdi
	call	_ZN5Board7set_bitERyi
.L632:
	movq	-48(%rbp), %rax
	movzbl	22(%rax), %eax
	cmpb	$32, %al
	je	.L634
	movq	-48(%rbp), %rax
	movl	4(%rax), %ebx
	movq	-40(%rbp), %rax
	addq	$120, %rax
	movq	-48(%rbp), %rdx
	addq	$22, %rdx
	movq	%rdx, %rsi
	movq	%rax, %rdi
	call	_ZNSt3mapIcySt4lessIcESaISt4pairIKcyEEEixERS3_
	movq	%rax, %rcx
	movq	-40(%rbp), %rax
	movl	%ebx, %edx
	movq	%rcx, %rsi
	movq	%rax, %rdi
	call	_ZN5Board10remove_bitERyi
	movq	-48(%rbp), %rax
	movl	4(%rax), %ebx
	movq	-40(%rbp), %rax
	addq	$120, %rax
	movq	-48(%rbp), %rdx
	addq	$20, %rdx
	movq	%rdx, %rsi
	movq	%rax, %rdi
	call	_ZNSt3mapIcySt4lessIcESaISt4pairIKcyEEEixERS3_
	movq	%rax, %rcx
	movq	-40(%rbp), %rax
	movl	%ebx, %edx
	movq	%rcx, %rsi
	movq	%rax, %rdi
	call	_ZN5Board7set_bitERyi
.L634:
	movq	-48(%rbp), %rax
	movl	12(%rax), %eax
	cmpl	$8, %eax
	je	.L635
	cmpl	$8, %eax
	jg	.L642
	cmpl	$4, %eax
	je	.L637
	cmpl	$4, %eax
	jg	.L642
	cmpl	$1, %eax
	je	.L638
	cmpl	$2, %eax
	je	.L639
	jmp	.L642
.L638:
	movq	-40(%rbp), %rax
	leaq	120(%rax), %rdx
	movb	$75, -29(%rbp)
	leaq	-29(%rbp), %rax
	movq	%rax, %rsi
	movq	%rdx, %rdi
	call	_ZNSt3mapIcySt4lessIcESaISt4pairIKcyEEEixEOc
	movq	%rax, %rcx
	movq	-40(%rbp), %rax
	movl	$60, %edx
	movq	%rcx, %rsi
	movq	%rax, %rdi
	call	_ZN5Board7set_bitERyi
	movq	-40(%rbp), %rax
	leaq	120(%rax), %rdx
	movb	$75, -29(%rbp)
	leaq	-29(%rbp), %rax
	movq	%rax, %rsi
	movq	%rdx, %rdi
	call	_ZNSt3mapIcySt4lessIcESaISt4pairIKcyEEEixEOc
	movq	%rax, %rcx
	movq	-40(%rbp), %rax
	movl	$62, %edx
	movq	%rcx, %rsi
	movq	%rax, %rdi
	call	_ZN5Board10remove_bitERyi
	movq	-40(%rbp), %rax
	leaq	120(%rax), %rdx
	movb	$82, -29(%rbp)
	leaq	-29(%rbp), %rax
	movq	%rax, %rsi
	movq	%rdx, %rdi
	call	_ZNSt3mapIcySt4lessIcESaISt4pairIKcyEEEixEOc
	movq	%rax, %rcx
	movq	-40(%rbp), %rax
	movl	$63, %edx
	movq	%rcx, %rsi
	movq	%rax, %rdi
	call	_ZN5Board7set_bitERyi
	movq	-40(%rbp), %rax
	leaq	120(%rax), %rdx
	movb	$82, -29(%rbp)
	leaq	-29(%rbp), %rax
	movq	%rax, %rsi
	movq	%rdx, %rdi
	call	_ZNSt3mapIcySt4lessIcESaISt4pairIKcyEEEixEOc
	movq	%rax, %rcx
	movq	-40(%rbp), %rax
	movl	$61, %edx
	movq	%rcx, %rsi
	movq	%rax, %rdi
	call	_ZN5Board10remove_bitERyi
	movq	-40(%rbp), %rax
	movl	176(%rax), %eax
	xorl	$1, %eax
	movl	%eax, %edx
	movq	-40(%rbp), %rax
	movl	%edx, 176(%rax)
	jmp	.L640
.L639:
	movq	-40(%rbp), %rax
	leaq	120(%rax), %rdx
	movb	$75, -29(%rbp)
	leaq	-29(%rbp), %rax
	movq	%rax, %rsi
	movq	%rdx, %rdi
	call	_ZNSt3mapIcySt4lessIcESaISt4pairIKcyEEEixEOc
	movq	%rax, %rcx
	movq	-40(%rbp), %rax
	movl	$60, %edx
	movq	%rcx, %rsi
	movq	%rax, %rdi
	call	_ZN5Board7set_bitERyi
	movq	-40(%rbp), %rax
	leaq	120(%rax), %rdx
	movb	$75, -29(%rbp)
	leaq	-29(%rbp), %rax
	movq	%rax, %rsi
	movq	%rdx, %rdi
	call	_ZNSt3mapIcySt4lessIcESaISt4pairIKcyEEEixEOc
	movq	%rax, %rcx
	movq	-40(%rbp), %rax
	movl	$58, %edx
	movq	%rcx, %rsi
	movq	%rax, %rdi
	call	_ZN5Board10remove_bitERyi
	movq	-40(%rbp), %rax
	leaq	120(%rax), %rdx
	movb	$82, -29(%rbp)
	leaq	-29(%rbp), %rax
	movq	%rax, %rsi
	movq	%rdx, %rdi
	call	_ZNSt3mapIcySt4lessIcESaISt4pairIKcyEEEixEOc
	movq	%rax, %rcx
	movq	-40(%rbp), %rax
	movl	$56, %edx
	movq	%rcx, %rsi
	movq	%rax, %rdi
	call	_ZN5Board7set_bitERyi
	movq	-40(%rbp), %rax
	leaq	120(%rax), %rdx
	movb	$82, -29(%rbp)
	leaq	-29(%rbp), %rax
	movq	%rax, %rsi
	movq	%rdx, %rdi
	call	_ZNSt3mapIcySt4lessIcESaISt4pairIKcyEEEixEOc
	movq	%rax, %rcx
	movq	-40(%rbp), %rax
	movl	$59, %edx
	movq	%rcx, %rsi
	movq	%rax, %rdi
	call	_ZN5Board10remove_bitERyi
	movq	-40(%rbp), %rax
	movl	176(%rax), %eax
	xorl	$2, %eax
	movl	%eax, %edx
	movq	-40(%rbp), %rax
	movl	%edx, 176(%rax)
	jmp	.L640
.L637:
	movq	-40(%rbp), %rax
	leaq	120(%rax), %rdx
	movb	$107, -29(%rbp)
	leaq	-29(%rbp), %rax
	movq	%rax, %rsi
	movq	%rdx, %rdi
	call	_ZNSt3mapIcySt4lessIcESaISt4pairIKcyEEEixEOc
	movq	%rax, %rcx
	movq	-40(%rbp), %rax
	movl	$4, %edx
	movq	%rcx, %rsi
	movq	%rax, %rdi
	call	_ZN5Board7set_bitERyi
	movq	-40(%rbp), %rax
	leaq	120(%rax), %rdx
	movb	$107, -29(%rbp)
	leaq	-29(%rbp), %rax
	movq	%rax, %rsi
	movq	%rdx, %rdi
	call	_ZNSt3mapIcySt4lessIcESaISt4pairIKcyEEEixEOc
	movq	%rax, %rcx
	movq	-40(%rbp), %rax
	movl	$6, %edx
	movq	%rcx, %rsi
	movq	%rax, %rdi
	call	_ZN5Board10remove_bitERyi
	movq	-40(%rbp), %rax
	leaq	120(%rax), %rdx
	movb	$114, -29(%rbp)
	leaq	-29(%rbp), %rax
	movq	%rax, %rsi
	movq	%rdx, %rdi
	call	_ZNSt3mapIcySt4lessIcESaISt4pairIKcyEEEixEOc
	movq	%rax, %rcx
	movq	-40(%rbp), %rax
	movl	$7, %edx
	movq	%rcx, %rsi
	movq	%rax, %rdi
	call	_ZN5Board7set_bitERyi
	movq	-40(%rbp), %rax
	leaq	120(%rax), %rdx
	movb	$114, -29(%rbp)
	leaq	-29(%rbp), %rax
	movq	%rax, %rsi
	movq	%rdx, %rdi
	call	_ZNSt3mapIcySt4lessIcESaISt4pairIKcyEEEixEOc
	movq	%rax, %rcx
	movq	-40(%rbp), %rax
	movl	$5, %edx
	movq	%rcx, %rsi
	movq	%rax, %rdi
	call	_ZN5Board10remove_bitERyi
	movq	-40(%rbp), %rax
	movl	176(%rax), %eax
	xorl	$4, %eax
	movl	%eax, %edx
	movq	-40(%rbp), %rax
	movl	%edx, 176(%rax)
	jmp	.L640
.L635:
	movq	-40(%rbp), %rax
	leaq	120(%rax), %rdx
	movb	$107, -29(%rbp)
	leaq	-29(%rbp), %rax
	movq	%rax, %rsi
	movq	%rdx, %rdi
	call	_ZNSt3mapIcySt4lessIcESaISt4pairIKcyEEEixEOc
	movq	%rax, %rcx
	movq	-40(%rbp), %rax
	movl	$4, %edx
	movq	%rcx, %rsi
	movq	%rax, %rdi
	call	_ZN5Board7set_bitERyi
	movq	-40(%rbp), %rax
	leaq	120(%rax), %rdx
	movb	$107, -29(%rbp)
	leaq	-29(%rbp), %rax
	movq	%rax, %rsi
	movq	%rdx, %rdi
	call	_ZNSt3mapIcySt4lessIcESaISt4pairIKcyEEEixEOc
	movq	%rax, %rcx
	movq	-40(%rbp), %rax
	movl	$2, %edx
	movq	%rcx, %rsi
	movq	%rax, %rdi
	call	_ZN5Board10remove_bitERyi
	movq	-40(%rbp), %rax
	leaq	120(%rax), %rdx
	movb	$114, -29(%rbp)
	leaq	-29(%rbp), %rax
	movq	%rax, %rsi
	movq	%rdx, %rdi
	call	_ZNSt3mapIcySt4lessIcESaISt4pairIKcyEEEixEOc
	movq	%rax, %rcx
	movq	-40(%rbp), %rax
	movl	$0, %edx
	movq	%rcx, %rsi
	movq	%rax, %rdi
	call	_ZN5Board7set_bitERyi
	movq	-40(%rbp), %rax
	leaq	120(%rax), %rdx
	movb	$114, -29(%rbp)
	leaq	-29(%rbp), %rax
	movq	%rax, %rsi
	movq	%rdx, %rdi
	call	_ZNSt3mapIcySt4lessIcESaISt4pairIKcyEEEixEOc
	movq	%rax, %rcx
	movq	-40(%rbp), %rax
	movl	$3, %edx
	movq	%rcx, %rsi
	movq	%rax, %rdi
	call	_ZN5Board10remove_bitERyi
	movq	-40(%rbp), %rax
	movl	176(%rax), %eax
	xorl	$8, %eax
	movl	%eax, %edx
	movq	-40(%rbp), %rax
	movl	%edx, 176(%rax)
	jmp	.L640
.L642:
	nop
.L640:
	movq	-48(%rbp), %rax
	movl	16(%rax), %edx
	movq	-40(%rbp), %rax
	movl	%edx, 168(%rax)
	movq	-40(%rbp), %rax
	movq	%rax, %rdi
	call	_ZN5Board12update_boardEv
	nop
	movq	-24(%rbp), %rax
	subq	%fs:40, %rax
	je	.L641
	call	__stack_chk_fail@PLT
.L641:
	movq	-8(%rbp), %rbx
	leave
	.cfi_def_cfa 7, 8
	ret
	.cfi_endproc
.LFE9845:
	.size	_ZN5Board8pop_moveENS_4moveE, .-_ZN5Board8pop_moveENS_4moveE
	.align 2
	.globl	_ZN5Board5perftEi
	.type	_ZN5Board5perftEi, @function
_ZN5Board5perftEi:
.LFB9846:
	.cfi_startproc
	.cfi_personality 0x9b,DW.ref.__gxx_personality_v0
	.cfi_lsda 0x1b,.LLSDA9846
	endbr64
	pushq	%rbp
	.cfi_def_cfa_offset 16
	.cfi_offset 6, -16
	movq	%rsp, %rbp
	.cfi_def_cfa_register 6
	pushq	%rbx
	subq	$168, %rsp
	.cfi_offset 3, -24
	movq	%rdi, -168(%rbp)
	movl	%esi, -172(%rbp)
	movq	%fs:40, %rax
	movq	%rax, -24(%rbp)
	xorl	%eax, %eax
	cmpl	$0, -172(%rbp)
	jne	.L644
	movl	$1, %ebx
	jmp	.L650
.L644:
	movq	$0, -152(%rbp)
	movq	-168(%rbp), %rax
	movl	168(%rax), %edx
	leaq	-144(%rbp), %rax
	movq	-168(%rbp), %rcx
	movq	%rcx, %rsi
	movq	%rax, %rdi
.LEHB121:
	call	_ZN5Board15get_legal_movesEi
.LEHE121:
	movl	$0, -156(%rbp)
	jmp	.L646
.L649:
	movl	-156(%rbp), %eax
	movslq	%eax, %rdx
	leaq	-144(%rbp), %rax
	movq	%rdx, %rsi
	movq	%rax, %rdi
	call	_ZNSt6vectorIN5Board4moveESaIS1_EEixEm
	leaq	24(%rax), %rdx
	leaq	-112(%rbp), %rax
	movq	%rdx, %rsi
	movq	%rax, %rdi
.LEHB122:
	call	_ZNSt7__cxx1112basic_stringIcSt11char_traitsIcESaIcEEC1ERKS4_@PLT
.LEHE122:
	movl	-156(%rbp), %eax
	movslq	%eax, %rdx
	leaq	-144(%rbp), %rax
	movq	%rdx, %rsi
	movq	%rax, %rdi
	call	_ZNSt6vectorIN5Board4moveESaIS1_EEixEm
	movq	%rax, %rdx
	leaq	-80(%rbp), %rax
	movq	%rdx, %rsi
	movq	%rax, %rdi
.LEHB123:
	call	_ZN5Board4moveC1ERKS0_
.LEHE123:
	leaq	-80(%rbp), %rdx
	movq	-168(%rbp), %rax
	movq	%rdx, %rsi
	movq	%rax, %rdi
.LEHB124:
	call	_ZN5Board9push_moveENS_4moveE
.LEHE124:
	leaq	-80(%rbp), %rax
	movq	%rax, %rdi
	call	_ZN5Board4moveD1Ev
	movq	-168(%rbp), %rax
	leaq	2361984(%rax), %rbx
	movl	-156(%rbp), %eax
	movslq	%eax, %rdx
	leaq	-144(%rbp), %rax
	movq	%rdx, %rsi
	movq	%rax, %rdi
	call	_ZNSt6vectorIN5Board4moveESaIS1_EEixEm
	addq	$20, %rax
	movq	%rax, %rsi
	movq	%rbx, %rdi
.LEHB125:
	call	_ZNKSt3mapIciSt4lessIcESaISt4pairIKciEEE5countERS3_
	testq	%rax, %rax
	sete	%al
	testb	%al, %al
	je	.L647
	movq	-168(%rbp), %rax
	leaq	2361984(%rax), %rbx
	movl	-156(%rbp), %eax
	movslq	%eax, %rdx
	leaq	-144(%rbp), %rax
	movq	%rdx, %rsi
	movq	%rax, %rdi
	call	_ZNSt6vectorIN5Board4moveESaIS1_EEixEm
	addq	$20, %rax
	movq	%rax, %rsi
	movq	%rbx, %rdi
	call	_ZNSt3mapIciSt4lessIcESaISt4pairIKciEEEixERS3_
	movl	$1, (%rax)
	jmp	.L648
.L647:
	movq	-168(%rbp), %rax
	leaq	2361984(%rax), %rbx
	movl	-156(%rbp), %eax
	movslq	%eax, %rdx
	leaq	-144(%rbp), %rax
	movq	%rdx, %rsi
	movq	%rax, %rdi
	call	_ZNSt6vectorIN5Board4moveESaIS1_EEixEm
	addq	$20, %rax
	movq	%rax, %rsi
	movq	%rbx, %rdi
	call	_ZNSt3mapIciSt4lessIcESaISt4pairIKciEEEixERS3_
	movl	(%rax), %edx
	addl	$1, %edx
	movl	%edx, (%rax)
.L648:
	movl	-172(%rbp), %eax
	leal	-1(%rax), %edx
	movq	-168(%rbp), %rax
	movl	%edx, %esi
	movq	%rax, %rdi
	call	_ZN5Board5perftEi
	addq	%rax, -152(%rbp)
	movl	-156(%rbp), %eax
	movslq	%eax, %rdx
	leaq	-144(%rbp), %rax
	movq	%rdx, %rsi
	movq	%rax, %rdi
	call	_ZNSt6vectorIN5Board4moveESaIS1_EEixEm
	movq	%rax, %rdx
	leaq	-80(%rbp), %rax
	movq	%rdx, %rsi
	movq	%rax, %rdi
	call	_ZN5Board4moveC1ERKS0_
.LEHE125:
	leaq	-80(%rbp), %rdx
	movq	-168(%rbp), %rax
	movq	%rdx, %rsi
	movq	%rax, %rdi
.LEHB126:
	call	_ZN5Board8pop_moveENS_4moveE
.LEHE126:
	leaq	-80(%rbp), %rax
	movq	%rax, %rdi
	call	_ZN5Board4moveD1Ev
	leaq	-112(%rbp), %rax
	movq	%rax, %rdi
	call	_ZNSt7__cxx1112basic_stringIcSt11char_traitsIcESaIcEED1Ev@PLT
	addl	$1, -156(%rbp)
.L646:
	movl	-156(%rbp), %eax
	movslq	%eax, %rbx
	leaq	-144(%rbp), %rax
	movq	%rax, %rdi
	call	_ZNKSt6vectorIN5Board4moveESaIS1_EE4sizeEv
	cmpq	%rax, %rbx
	setb	%al
	testb	%al, %al
	jne	.L649
	movq	-152(%rbp), %rbx
	leaq	-144(%rbp), %rax
	movq	%rax, %rdi
	call	_ZNSt6vectorIN5Board4moveESaIS1_EED1Ev
.L650:
	movq	%rbx, %rax
	movq	-24(%rbp), %rdx
	subq	%fs:40, %rdx
	je	.L655
	jmp	.L660
.L658:
	endbr64
	movq	%rax, %rbx
	leaq	-80(%rbp), %rax
	movq	%rax, %rdi
	call	_ZN5Board4moveD1Ev
	jmp	.L652
.L659:
	endbr64
	movq	%rax, %rbx
	leaq	-80(%rbp), %rax
	movq	%rax, %rdi
	call	_ZN5Board4moveD1Ev
	jmp	.L652
.L657:
	endbr64
	movq	%rax, %rbx
.L652:
	leaq	-112(%rbp), %rax
	movq	%rax, %rdi
	call	_ZNSt7__cxx1112basic_stringIcSt11char_traitsIcESaIcEED1Ev@PLT
	jmp	.L654
.L656:
	endbr64
	movq	%rax, %rbx
.L654:
	leaq	-144(%rbp), %rax
	movq	%rax, %rdi
	call	_ZNSt6vectorIN5Board4moveESaIS1_EED1Ev
	movq	%rbx, %rax
	movq	%rax, %rdi
.LEHB127:
	call	_Unwind_Resume@PLT
.LEHE127:
.L660:
	call	__stack_chk_fail@PLT
.L655:
	movq	-8(%rbp), %rbx
	leave
	.cfi_def_cfa 7, 8
	ret
	.cfi_endproc
.LFE9846:
	.section	.gcc_except_table
.LLSDA9846:
	.byte	0xff
	.byte	0xff
	.byte	0x1
	.uleb128 .LLSDACSE9846-.LLSDACSB9846
.LLSDACSB9846:
	.uleb128 .LEHB121-.LFB9846
	.uleb128 .LEHE121-.LEHB121
	.uleb128 0
	.uleb128 0
	.uleb128 .LEHB122-.LFB9846
	.uleb128 .LEHE122-.LEHB122
	.uleb128 .L656-.LFB9846
	.uleb128 0
	.uleb128 .LEHB123-.LFB9846
	.uleb128 .LEHE123-.LEHB123
	.uleb128 .L657-.LFB9846
	.uleb128 0
	.uleb128 .LEHB124-.LFB9846
	.uleb128 .LEHE124-.LEHB124
	.uleb128 .L658-.LFB9846
	.uleb128 0
	.uleb128 .LEHB125-.LFB9846
	.uleb128 .LEHE125-.LEHB125
	.uleb128 .L657-.LFB9846
	.uleb128 0
	.uleb128 .LEHB126-.LFB9846
	.uleb128 .LEHE126-.LEHB126
	.uleb128 .L659-.LFB9846
	.uleb128 0
	.uleb128 .LEHB127-.LFB9846
	.uleb128 .LEHE127-.LEHB127
	.uleb128 0
	.uleb128 0
.LLSDACSE9846:
	.text
	.size	_ZN5Board5perftEi, .-_ZN5Board5perftEi
	.section	.rodata
.LC85:
	.string	"total nodes: "
.LC86:
	.string	"castles: "
.LC87:
	.string	"->"
.LC88:
	.string	"\n\n"
	.text
	.align 2
	.globl	_ZN5Board14function_debugEv
	.type	_ZN5Board14function_debugEv, @function
_ZN5Board14function_debugEv:
.LFB9847:
	.cfi_startproc
	endbr64
	pushq	%rbp
	.cfi_def_cfa_offset 16
	.cfi_offset 6, -16
	movq	%rsp, %rbp
	.cfi_def_cfa_register 6
	pushq	%r12
	pushq	%rbx
	subq	$48, %rsp
	.cfi_offset 12, -24
	.cfi_offset 3, -32
	movq	%rdi, -56(%rbp)
	movq	%fs:40, %rax
	movq	%rax, -24(%rbp)
	xorl	%eax, %eax
	leaq	.LC85(%rip), %rax
	movq	%rax, %rsi
	leaq	_ZSt4cout(%rip), %rax
	movq	%rax, %rdi
	call	_ZStlsISt11char_traitsIcEERSt13basic_ostreamIcT_ES5_PKc@PLT
	movq	%rax, %rbx
	movq	-56(%rbp), %rax
	movl	$2, %esi
	movq	%rax, %rdi
	call	_ZN5Board5perftEi
	movq	%rax, %rsi
	movq	%rbx, %rdi
	call	_ZNSolsEy@PLT
	movq	_ZSt4endlIcSt11char_traitsIcEERSt13basic_ostreamIT_T0_ES6_@GOTPCREL(%rip), %rdx
	movq	%rdx, %rsi
	movq	%rax, %rdi
	call	_ZNSolsEPFRSoS_E@PLT
	movq	-56(%rbp), %rax
	movq	%rax, %rdi
	call	_ZN5Board16print_full_boardEv
	leaq	.LC86(%rip), %rax
	movq	%rax, %rsi
	leaq	_ZSt4cout(%rip), %rax
	movq	%rax, %rdi
	call	_ZStlsISt11char_traitsIcEERSt13basic_ostreamIcT_ES5_PKc@PLT
	movq	%rax, %rdx
	movq	-56(%rbp), %rax
	movl	2361916(%rax), %eax
	movl	%eax, %esi
	movq	%rdx, %rdi
	call	_ZNSolsEi@PLT
	movq	_ZSt4endlIcSt11char_traitsIcEERSt13basic_ostreamIT_T0_ES6_@GOTPCREL(%rip), %rdx
	movq	%rdx, %rsi
	movq	%rax, %rdi
	call	_ZNSolsEPFRSoS_E@PLT
	movq	-56(%rbp), %rax
	addq	$2361936, %rax
	movq	%rax, %rdi
	call	_ZNSt3mapINSt7__cxx1112basic_stringIcSt11char_traitsIcESaIcEEEiSt4lessIS5_ESaISt4pairIKS5_iEEE5beginEv
	movq	%rax, -40(%rbp)
	jmp	.L662
.L663:
	leaq	-40(%rbp), %rax
	movq	%rax, %rdi
	call	_ZNKSt17_Rb_tree_iteratorISt4pairIKNSt7__cxx1112basic_stringIcSt11char_traitsIcESaIcEEEiEEptEv
	movq	%rax, %rsi
	leaq	_ZSt4cout(%rip), %rax
	movq	%rax, %rdi
	call	_ZStlsIcSt11char_traitsIcESaIcEERSt13basic_ostreamIT_T0_ES7_RKNSt7__cxx1112basic_stringIS4_S5_T1_EE@PLT
	movq	%rax, %rdx
	leaq	.LC87(%rip), %rax
	movq	%rax, %rsi
	movq	%rdx, %rdi
	call	_ZStlsISt11char_traitsIcEERSt13basic_ostreamIcT_ES5_PKc@PLT
	movq	%rax, %rbx
	leaq	-40(%rbp), %rax
	movq	%rax, %rdi
	call	_ZNKSt17_Rb_tree_iteratorISt4pairIKNSt7__cxx1112basic_stringIcSt11char_traitsIcESaIcEEEiEEptEv
	movl	32(%rax), %eax
	movl	%eax, %esi
	movq	%rbx, %rdi
	call	_ZNSolsEi@PLT
	movq	_ZSt4endlIcSt11char_traitsIcEERSt13basic_ostreamIT_T0_ES6_@GOTPCREL(%rip), %rdx
	movq	%rdx, %rsi
	movq	%rax, %rdi
	call	_ZNSolsEPFRSoS_E@PLT
	leaq	-40(%rbp), %rax
	movq	%rax, %rdi
	call	_ZNSt17_Rb_tree_iteratorISt4pairIKNSt7__cxx1112basic_stringIcSt11char_traitsIcESaIcEEEiEEppEv
.L662:
	movq	-56(%rbp), %rax
	addq	$2361936, %rax
	movq	%rax, %rdi
	call	_ZNSt3mapINSt7__cxx1112basic_stringIcSt11char_traitsIcESaIcEEEiSt4lessIS5_ESaISt4pairIKS5_iEEE3endEv
	movq	%rax, -32(%rbp)
	leaq	-32(%rbp), %rdx
	leaq	-40(%rbp), %rax
	movq	%rdx, %rsi
	movq	%rax, %rdi
	call	_ZStneRKSt17_Rb_tree_iteratorISt4pairIKNSt7__cxx1112basic_stringIcSt11char_traitsIcESaIcEEEiEESB_
	testb	%al, %al
	jne	.L663
	leaq	.LC88(%rip), %rax
	movq	%rax, %rsi
	leaq	_ZSt4cout(%rip), %rax
	movq	%rax, %rdi
	call	_ZStlsISt11char_traitsIcEERSt13basic_ostreamIcT_ES5_PKc@PLT
	movq	_ZSt4endlIcSt11char_traitsIcEERSt13basic_ostreamIT_T0_ES6_@GOTPCREL(%rip), %rdx
	movq	%rdx, %rsi
	movq	%rax, %rdi
	call	_ZNSolsEPFRSoS_E@PLT
	movl	$0, -44(%rbp)
	jmp	.L664
.L665:
	movq	-56(%rbp), %rax
	leaq	24(%rax), %rdx
	movl	-44(%rbp), %eax
	cltq
	movq	%rax, %rsi
	movq	%rdx, %rdi
	call	_ZNSt7__cxx1112basic_stringIcSt11char_traitsIcESaIcEEixEm@PLT
	movzbl	(%rax), %eax
	movsbl	%al, %eax
	movl	%eax, %esi
	leaq	_ZSt4cout(%rip), %rax
	movq	%rax, %rdi
	call	_ZStlsISt11char_traitsIcEERSt13basic_ostreamIcT_ES5_c@PLT
	movq	%rax, %rdx
	leaq	.LC87(%rip), %rax
	movq	%rax, %rsi
	movq	%rdx, %rdi
	call	_ZStlsISt11char_traitsIcEERSt13basic_ostreamIcT_ES5_PKc@PLT
	movq	%rax, %r12
	movq	-56(%rbp), %rax
	leaq	2361984(%rax), %rbx
	movq	-56(%rbp), %rax
	leaq	24(%rax), %rdx
	movl	-44(%rbp), %eax
	cltq
	movq	%rax, %rsi
	movq	%rdx, %rdi
	call	_ZNSt7__cxx1112basic_stringIcSt11char_traitsIcESaIcEEixEm@PLT
	movq	%rax, %rsi
	movq	%rbx, %rdi
	call	_ZNSt3mapIciSt4lessIcESaISt4pairIKciEEEixERS3_
	movl	(%rax), %eax
	movl	%eax, %esi
	movq	%r12, %rdi
	call	_ZNSolsEi@PLT
	movq	_ZSt4endlIcSt11char_traitsIcEERSt13basic_ostreamIT_T0_ES6_@GOTPCREL(%rip), %rdx
	movq	%rdx, %rsi
	movq	%rax, %rdi
	call	_ZNSolsEPFRSoS_E@PLT
	addl	$1, -44(%rbp)
.L664:
	movl	-44(%rbp), %eax
	movslq	%eax, %rbx
	movq	-56(%rbp), %rax
	addq	$24, %rax
	movq	%rax, %rdi
	call	_ZNKSt7__cxx1112basic_stringIcSt11char_traitsIcESaIcEE6lengthEv@PLT
	cmpq	%rax, %rbx
	setb	%al
	testb	%al, %al
	jne	.L665
	nop
	movq	-24(%rbp), %rax
	subq	%fs:40, %rax
	je	.L666
	call	__stack_chk_fail@PLT
.L666:
	addq	$48, %rsp
	popq	%rbx
	popq	%r12
	popq	%rbp
	.cfi_def_cfa 7, 8
	ret
	.cfi_endproc
.LFE9847:
	.size	_ZN5Board14function_debugEv, .-_ZN5Board14function_debugEv
	.section	.text._ZN5BoardD2Ev,"axG",@progbits,_ZN5BoardD5Ev,comdat
	.align 2
	.weak	_ZN5BoardD2Ev
	.type	_ZN5BoardD2Ev, @function
_ZN5BoardD2Ev:
.LFB9851:
	.cfi_startproc
	endbr64
	pushq	%rbp
	.cfi_def_cfa_offset 16
	.cfi_offset 6, -16
	movq	%rsp, %rbp
	.cfi_def_cfa_register 6
	subq	$16, %rsp
	movq	%rdi, -8(%rbp)
	movq	-8(%rbp), %rax
	addq	$2361984, %rax
	movq	%rax, %rdi
	call	_ZNSt3mapIciSt4lessIcESaISt4pairIKciEEED1Ev
	movq	-8(%rbp), %rax
	addq	$2361936, %rax
	movq	%rax, %rdi
	call	_ZNSt3mapINSt7__cxx1112basic_stringIcSt11char_traitsIcESaIcEEEiSt4lessIS5_ESaISt4pairIKS5_iEEED1Ev
	movq	-8(%rbp), %rax
	addq	$2361888, %rax
	movq	%rax, %rdi
	call	_ZNSt6vectorIySaIyEED1Ev
	movq	-8(%rbp), %rax
	addq	$2361864, %rax
	movq	%rax, %rdi
	call	_ZNSt6vectorIySaIyEED1Ev
	movq	-8(%rbp), %rax
	addq	$240, %rax
	movq	%rax, %rdi
	call	_ZNSt6vectorIySaIyEED1Ev
	movq	-8(%rbp), %rax
	addq	$216, %rax
	movq	%rax, %rdi
	call	_ZNSt6vectorIySaIyEED1Ev
	movq	-8(%rbp), %rax
	addq	$120, %rax
	movq	%rax, %rdi
	call	_ZNSt3mapIcySt4lessIcESaISt4pairIKcyEEED1Ev
	movq	-8(%rbp), %rax
	addq	$88, %rax
	movq	%rax, %rdi
	call	_ZNSt7__cxx1112basic_stringIcSt11char_traitsIcESaIcEED1Ev@PLT
	movq	-8(%rbp), %rax
	addq	$56, %rax
	movq	%rax, %rdi
	call	_ZNSt7__cxx1112basic_stringIcSt11char_traitsIcESaIcEED1Ev@PLT
	movq	-8(%rbp), %rax
	addq	$24, %rax
	movq	%rax, %rdi
	call	_ZNSt7__cxx1112basic_stringIcSt11char_traitsIcESaIcEED1Ev@PLT
	movq	-8(%rbp), %rax
	movq	%rax, %rdi
	call	_ZNSt6vectorINSt7__cxx1112basic_stringIcSt11char_traitsIcESaIcEEESaIS5_EED1Ev
	nop
	leave
	.cfi_def_cfa 7, 8
	ret
	.cfi_endproc
.LFE9851:
	.size	_ZN5BoardD2Ev, .-_ZN5BoardD2Ev
	.weak	_ZN5BoardD1Ev
	.set	_ZN5BoardD1Ev,_ZN5BoardD2Ev
	.section	.rodata
	.align 8
.LC89:
	.string	"r3k2r/p1ppqpb1/bn2pnp1/3PN3/1p2P3/2N2Q1p/PPPBBPPP/R3K2R w KQkq -"
	.text
	.globl	main
	.type	main, @function
main:
.LFB9849:
	.cfi_startproc
	.cfi_personality 0x9b,DW.ref.__gxx_personality_v0
	.cfi_lsda 0x1b,.LLSDA9849
	endbr64
	pushq	%rbp
	.cfi_def_cfa_offset 16
	.cfi_offset 6, -16
	movq	%rsp, %rbp
	.cfi_def_cfa_register 6
	pushq	%rbx
	leaq	-2359296(%rsp), %r11
.LPSRL0:
	subq	$4096, %rsp
	orq	$0, (%rsp)
	cmpq	%r11, %rsp
	jne	.LPSRL0
	subq	$2872, %rsp
	.cfi_offset 3, -24
	movq	%fs:40, %rax
	movq	%rax, -24(%rbp)
	xorl	%eax, %eax
	leaq	-2362161(%rbp), %rax
	movq	%rax, %rdi
	call	_ZNSaIcEC1Ev@PLT
	leaq	-2362161(%rbp), %rdx
	leaq	-2362160(%rbp), %rax
	leaq	.LC89(%rip), %rcx
	movq	%rcx, %rsi
	movq	%rax, %rdi
.LEHB128:
	call	_ZNSt7__cxx1112basic_stringIcSt11char_traitsIcESaIcEEC1IS3_EEPKcRKS3_
.LEHE128:
	leaq	-2362161(%rbp), %rax
	movq	%rax, %rdi
	call	_ZNSaIcED1Ev@PLT
	leaq	-2362160(%rbp), %rdx
	leaq	-2362128(%rbp), %rax
	movq	%rdx, %rsi
	movq	%rax, %rdi
.LEHB129:
	call	_ZNSt7__cxx1112basic_stringIcSt11char_traitsIcESaIcEEC1ERKS4_@PLT
.LEHE129:
	leaq	-2362128(%rbp), %rdx
	leaq	-2362096(%rbp), %rax
	movq	%rdx, %rsi
	movq	%rax, %rdi
.LEHB130:
	call	_ZNSt7__cxx1112basic_stringIcSt11char_traitsIcESaIcEEC1ERKS4_@PLT
.LEHE130:
	leaq	-2362096(%rbp), %rdx
	leaq	-2362064(%rbp), %rax
	movq	%rdx, %rsi
	movq	%rax, %rdi
.LEHB131:
	call	_ZN5BoardC1ENSt7__cxx1112basic_stringIcSt11char_traitsIcESaIcEEE
.LEHE131:
	leaq	-2362096(%rbp), %rax
	movq	%rax, %rdi
	call	_ZNSt7__cxx1112basic_stringIcSt11char_traitsIcESaIcEED1Ev@PLT
	leaq	-2362064(%rbp), %rax
	movq	%rax, %rdi
.LEHB132:
	call	_ZN5Board14function_debugEv
.LEHE132:
	movl	$0, %ebx
	leaq	-2362064(%rbp), %rax
	movq	%rax, %rdi
	call	_ZN5BoardD1Ev
	leaq	-2362128(%rbp), %rax
	movq	%rax, %rdi
	call	_ZNSt7__cxx1112basic_stringIcSt11char_traitsIcESaIcEED1Ev@PLT
	leaq	-2362160(%rbp), %rax
	movq	%rax, %rdi
	call	_ZNSt7__cxx1112basic_stringIcSt11char_traitsIcESaIcEED1Ev@PLT
	movl	%ebx, %eax
	movq	-24(%rbp), %rdx
	subq	%fs:40, %rdx
	je	.L675
	jmp	.L681
.L676:
	endbr64
	movq	%rax, %rbx
	leaq	-2362161(%rbp), %rax
	movq	%rax, %rdi
	call	_ZNSaIcED1Ev@PLT
	movq	%rbx, %rax
	movq	%rax, %rdi
.LEHB133:
	call	_Unwind_Resume@PLT
.L679:
	endbr64
	movq	%rax, %rbx
	leaq	-2362096(%rbp), %rax
	movq	%rax, %rdi
	call	_ZNSt7__cxx1112basic_stringIcSt11char_traitsIcESaIcEED1Ev@PLT
	jmp	.L672
.L680:
	endbr64
	movq	%rax, %rbx
	leaq	-2362064(%rbp), %rax
	movq	%rax, %rdi
	call	_ZN5BoardD1Ev
	jmp	.L672
.L678:
	endbr64
	movq	%rax, %rbx
.L672:
	leaq	-2362128(%rbp), %rax
	movq	%rax, %rdi
	call	_ZNSt7__cxx1112basic_stringIcSt11char_traitsIcESaIcEED1Ev@PLT
	jmp	.L674
.L677:
	endbr64
	movq	%rax, %rbx
.L674:
	leaq	-2362160(%rbp), %rax
	movq	%rax, %rdi
	call	_ZNSt7__cxx1112basic_stringIcSt11char_traitsIcESaIcEED1Ev@PLT
	movq	%rbx, %rax
	movq	%rax, %rdi
	call	_Unwind_Resume@PLT
.LEHE133:
.L681:
	call	__stack_chk_fail@PLT
.L675:
	movq	-8(%rbp), %rbx
	leave
	.cfi_def_cfa 7, 8
	ret
	.cfi_endproc
.LFE9849:
	.section	.gcc_except_table
.LLSDA9849:
	.byte	0xff
	.byte	0xff
	.byte	0x1
	.uleb128 .LLSDACSE9849-.LLSDACSB9849
.LLSDACSB9849:
	.uleb128 .LEHB128-.LFB9849
	.uleb128 .LEHE128-.LEHB128
	.uleb128 .L676-.LFB9849
	.uleb128 0
	.uleb128 .LEHB129-.LFB9849
	.uleb128 .LEHE129-.LEHB129
	.uleb128 .L677-.LFB9849
	.uleb128 0
	.uleb128 .LEHB130-.LFB9849
	.uleb128 .LEHE130-.LEHB130
	.uleb128 .L678-.LFB9849
	.uleb128 0
	.uleb128 .LEHB131-.LFB9849
	.uleb128 .LEHE131-.LEHB131
	.uleb128 .L679-.LFB9849
	.uleb128 0
	.uleb128 .LEHB132-.LFB9849
	.uleb128 .LEHE132-.LEHB132
	.uleb128 .L680-.LFB9849
	.uleb128 0
	.uleb128 .LEHB133-.LFB9849
	.uleb128 .LEHE133-.LEHB133
	.uleb128 0
	.uleb128 0
.LLSDACSE9849:
	.text
	.size	main, .-main
	.section	.text._ZN9__gnu_cxx11char_traitsIcE2eqERKcS3_,"axG",@progbits,_ZN9__gnu_cxx11char_traitsIcE2eqERKcS3_,comdat
	.weak	_ZN9__gnu_cxx11char_traitsIcE2eqERKcS3_
	.type	_ZN9__gnu_cxx11char_traitsIcE2eqERKcS3_, @function
_ZN9__gnu_cxx11char_traitsIcE2eqERKcS3_:
.LFB9854:
	.cfi_startproc
	endbr64
	pushq	%rbp
	.cfi_def_cfa_offset 16
	.cfi_offset 6, -16
	movq	%rsp, %rbp
	.cfi_def_cfa_register 6
	movq	%rdi, -8(%rbp)
	movq	%rsi, -16(%rbp)
	movq	-8(%rbp), %rax
	movzbl	(%rax), %edx
	movq	-16(%rbp), %rax
	movzbl	(%rax), %eax
	cmpb	%al, %dl
	sete	%al
	popq	%rbp
	.cfi_def_cfa 7, 8
	ret
	.cfi_endproc
.LFE9854:
	.size	_ZN9__gnu_cxx11char_traitsIcE2eqERKcS3_, .-_ZN9__gnu_cxx11char_traitsIcE2eqERKcS3_
	.section	.text._ZN9__gnu_cxx11char_traitsIcE6lengthEPKc,"axG",@progbits,_ZN9__gnu_cxx11char_traitsIcE6lengthEPKc,comdat
	.align 2
	.weak	_ZN9__gnu_cxx11char_traitsIcE6lengthEPKc
	.type	_ZN9__gnu_cxx11char_traitsIcE6lengthEPKc, @function
_ZN9__gnu_cxx11char_traitsIcE6lengthEPKc:
.LFB9853:
	.cfi_startproc
	endbr64
	pushq	%rbp
	.cfi_def_cfa_offset 16
	.cfi_offset 6, -16
	movq	%rsp, %rbp
	.cfi_def_cfa_register 6
	subq	$48, %rsp
	movq	%rdi, -40(%rbp)
	movq	%fs:40, %rax
	movq	%rax, -8(%rbp)
	xorl	%eax, %eax
	movq	$0, -16(%rbp)
	jmp	.L685
.L686:
	addq	$1, -16(%rbp)
.L685:
	movb	$0, -17(%rbp)
	movq	-40(%rbp), %rdx
	movq	-16(%rbp), %rax
	addq	%rax, %rdx
	leaq	-17(%rbp), %rax
	movq	%rax, %rsi
	movq	%rdx, %rdi
	call	_ZN9__gnu_cxx11char_traitsIcE2eqERKcS3_
	xorl	$1, %eax
	testb	%al, %al
	jne	.L686
	movq	-16(%rbp), %rax
	movq	-8(%rbp), %rdx
	subq	%fs:40, %rdx
	je	.L688
	call	__stack_chk_fail@PLT
.L688:
	leave
	.cfi_def_cfa 7, 8
	ret
	.cfi_endproc
.LFE9853:
	.size	_ZN9__gnu_cxx11char_traitsIcE6lengthEPKc, .-_ZN9__gnu_cxx11char_traitsIcE6lengthEPKc
	.section	.text._ZNSt7__cxx1112basic_stringIcSt11char_traitsIcESaIcEE12_Alloc_hiderD2Ev,"axG",@progbits,_ZNSt7__cxx1112basic_stringIcSt11char_traitsIcESaIcEE12_Alloc_hiderD5Ev,comdat
	.align 2
	.weak	_ZNSt7__cxx1112basic_stringIcSt11char_traitsIcESaIcEE12_Alloc_hiderD2Ev
	.type	_ZNSt7__cxx1112basic_stringIcSt11char_traitsIcESaIcEE12_Alloc_hiderD2Ev, @function
_ZNSt7__cxx1112basic_stringIcSt11char_traitsIcESaIcEE12_Alloc_hiderD2Ev:
.LFB9961:
	.cfi_startproc
	endbr64
	pushq	%rbp
	.cfi_def_cfa_offset 16
	.cfi_offset 6, -16
	movq	%rsp, %rbp
	.cfi_def_cfa_register 6
	subq	$16, %rsp
	movq	%rdi, -8(%rbp)
	movq	-8(%rbp), %rax
	movq	%rax, %rdi
	call	_ZNSaIcED2Ev@PLT
	nop
	leave
	.cfi_def_cfa 7, 8
	ret
	.cfi_endproc
.LFE9961:
	.size	_ZNSt7__cxx1112basic_stringIcSt11char_traitsIcESaIcEE12_Alloc_hiderD2Ev, .-_ZNSt7__cxx1112basic_stringIcSt11char_traitsIcESaIcEE12_Alloc_hiderD2Ev
	.weak	_ZNSt7__cxx1112basic_stringIcSt11char_traitsIcESaIcEE12_Alloc_hiderD1Ev
	.set	_ZNSt7__cxx1112basic_stringIcSt11char_traitsIcESaIcEE12_Alloc_hiderD1Ev,_ZNSt7__cxx1112basic_stringIcSt11char_traitsIcESaIcEE12_Alloc_hiderD2Ev
	.section	.text._ZSt3maxImERKT_S2_S2_,"axG",@progbits,_ZSt3maxImERKT_S2_S2_,comdat
	.weak	_ZSt3maxImERKT_S2_S2_
	.type	_ZSt3maxImERKT_S2_S2_, @function
_ZSt3maxImERKT_S2_S2_:
.LFB10164:
	.cfi_startproc
	endbr64
	pushq	%rbp
	.cfi_def_cfa_offset 16
	.cfi_offset 6, -16
	movq	%rsp, %rbp
	.cfi_def_cfa_register 6
	movq	%rdi, -8(%rbp)
	movq	%rsi, -16(%rbp)
	movq	-8(%rbp), %rax
	movq	(%rax), %rdx
	movq	-16(%rbp), %rax
	movq	(%rax), %rax
	cmpq	%rax, %rdx
	jnb	.L691
	movq	-16(%rbp), %rax
	jmp	.L692
.L691:
	movq	-8(%rbp), %rax
.L692:
	popq	%rbp
	.cfi_def_cfa 7, 8
	ret
	.cfi_endproc
.LFE10164:
	.size	_ZSt3maxImERKT_S2_S2_, .-_ZSt3maxImERKT_S2_S2_
	.section	.text._ZNSt7__cxx1112basic_stringIcSt11char_traitsIcESaIcEEC2IS3_EEPKcRKS3_,"axG",@progbits,_ZNSt7__cxx1112basic_stringIcSt11char_traitsIcESaIcEEC5IS3_EEPKcRKS3_,comdat
	.align 2
	.weak	_ZNSt7__cxx1112basic_stringIcSt11char_traitsIcESaIcEEC2IS3_EEPKcRKS3_
	.type	_ZNSt7__cxx1112basic_stringIcSt11char_traitsIcESaIcEEC2IS3_EEPKcRKS3_, @function
_ZNSt7__cxx1112basic_stringIcSt11char_traitsIcESaIcEEC2IS3_EEPKcRKS3_:
.LFB10443:
	.cfi_startproc
	.cfi_personality 0x9b,DW.ref.__gxx_personality_v0
	.cfi_lsda 0x1b,.LLSDA10443
	endbr64
	pushq	%rbp
	.cfi_def_cfa_offset 16
	.cfi_offset 6, -16
	movq	%rsp, %rbp
	.cfi_def_cfa_register 6
	pushq	%rbx
	subq	$72, %rsp
	.cfi_offset 3, -24
	movq	%rdi, -56(%rbp)
	movq	%rsi, -64(%rbp)
	movq	%rdx, -72(%rbp)
	movq	%fs:40, %rax
	movq	%rax, -24(%rbp)
	xorl	%eax, %eax
	movq	-56(%rbp), %rbx
	movq	-56(%rbp), %rax
	movq	%rax, %rdi
.LEHB134:
	call	_ZNSt7__cxx1112basic_stringIcSt11char_traitsIcESaIcEE13_M_local_dataEv@PLT
	movq	%rax, %rcx
	movq	-72(%rbp), %rax
	movq	%rax, %rdx
	movq	%rcx, %rsi
	movq	%rbx, %rdi
	call	_ZNSt7__cxx1112basic_stringIcSt11char_traitsIcESaIcEE12_Alloc_hiderC1EPcRKS3_@PLT
.LEHE134:
	cmpq	$0, -64(%rbp)
	je	.L694
	movq	-64(%rbp), %rax
	movq	%rax, %rdi
.LEHB135:
	call	_ZNSt11char_traitsIcE6lengthEPKc
	movq	-64(%rbp), %rdx
	addq	%rdx, %rax
	jmp	.L695
.L694:
	movl	$1, %eax
.L695:
	movq	%rax, -32(%rbp)
	movq	-32(%rbp), %rdx
	movq	-64(%rbp), %rcx
	movq	-56(%rbp), %rax
	movq	%rcx, %rsi
	movq	%rax, %rdi
	call	_ZNSt7__cxx1112basic_stringIcSt11char_traitsIcESaIcEE12_M_constructIPKcEEvT_S8_St20forward_iterator_tag
.LEHE135:
	jmp	.L699
.L698:
	endbr64
	movq	%rax, %rbx
	movq	-56(%rbp), %rax
	movq	%rax, %rdi
	call	_ZNSt7__cxx1112basic_stringIcSt11char_traitsIcESaIcEE12_Alloc_hiderD1Ev
	movq	%rbx, %rax
	movq	%rax, %rdi
.LEHB136:
	call	_Unwind_Resume@PLT
.LEHE136:
.L699:
	movq	-24(%rbp), %rax
	subq	%fs:40, %rax
	je	.L697
	call	__stack_chk_fail@PLT
.L697:
	movq	-8(%rbp), %rbx
	leave
	.cfi_def_cfa 7, 8
	ret
	.cfi_endproc
.LFE10443:
	.section	.gcc_except_table
.LLSDA10443:
	.byte	0xff
	.byte	0xff
	.byte	0x1
	.uleb128 .LLSDACSE10443-.LLSDACSB10443
.LLSDACSB10443:
	.uleb128 .LEHB134-.LFB10443
	.uleb128 .LEHE134-.LEHB134
	.uleb128 0
	.uleb128 0
	.uleb128 .LEHB135-.LFB10443
	.uleb128 .LEHE135-.LEHB135
	.uleb128 .L698-.LFB10443
	.uleb128 0
	.uleb128 .LEHB136-.LFB10443
	.uleb128 .LEHE136-.LEHB136
	.uleb128 0
	.uleb128 0
.LLSDACSE10443:
	.section	.text._ZNSt7__cxx1112basic_stringIcSt11char_traitsIcESaIcEEC2IS3_EEPKcRKS3_,"axG",@progbits,_ZNSt7__cxx1112basic_stringIcSt11char_traitsIcESaIcEEC5IS3_EEPKcRKS3_,comdat
	.size	_ZNSt7__cxx1112basic_stringIcSt11char_traitsIcESaIcEEC2IS3_EEPKcRKS3_, .-_ZNSt7__cxx1112basic_stringIcSt11char_traitsIcESaIcEEC2IS3_EEPKcRKS3_
	.weak	_ZNSt7__cxx1112basic_stringIcSt11char_traitsIcESaIcEEC1IS3_EEPKcRKS3_
	.set	_ZNSt7__cxx1112basic_stringIcSt11char_traitsIcESaIcEEC1IS3_EEPKcRKS3_,_ZNSt7__cxx1112basic_stringIcSt11char_traitsIcESaIcEEC2IS3_EEPKcRKS3_
	.section	.text._ZSt11__addressofINSt7__cxx1112basic_stringIcSt11char_traitsIcESaIcEEEEPT_RS6_,"axG",@progbits,_ZSt11__addressofINSt7__cxx1112basic_stringIcSt11char_traitsIcESaIcEEEEPT_RS6_,comdat
	.weak	_ZSt11__addressofINSt7__cxx1112basic_stringIcSt11char_traitsIcESaIcEEEEPT_RS6_
	.type	_ZSt11__addressofINSt7__cxx1112basic_stringIcSt11char_traitsIcESaIcEEEEPT_RS6_, @function
_ZSt11__addressofINSt7__cxx1112basic_stringIcSt11char_traitsIcESaIcEEEEPT_RS6_:
.LFB10513:
	.cfi_startproc
	endbr64
	pushq	%rbp
	.cfi_def_cfa_offset 16
	.cfi_offset 6, -16
	movq	%rsp, %rbp
	.cfi_def_cfa_register 6
	movq	%rdi, -8(%rbp)
	movq	-8(%rbp), %rax
	popq	%rbp
	.cfi_def_cfa 7, 8
	ret
